

Microchip MPLAB XC8 Assembler V3.00 build 20241204225717 
                                                                                               Tue Jul 01 17:16:45 2025

Microchip MPLAB XC8 C Compiler v3.00 (Free license) build 20241204225717 Og1 
     1                           	processor	16F877A
     2                           	pagewidth 120
     3                           	opt	flic
     4                           	psect	idataCOMMON,global,class=CODE,space=0,delta=2,noexec
     5                           	psect	idataBANK0,global,class=CODE,space=0,delta=2,noexec
     6                           	psect	idataBANK1,global,class=CODE,space=0,delta=2,noexec
     7                           	psect	strings,global,class=STRING,space=0,delta=2,noexec
     8                           	psect	stringtext,global,reloc=256,class=STRCODE,space=0,delta=2,noexec
     9                           	psect	cinit,global,class=CODE,space=0,merge=1,delta=2
    10                           	psect	bssCOMMON,global,class=COMMON,space=1,delta=1,noexec
    11                           	psect	dataCOMMON,global,class=COMMON,space=1,delta=1,noexec
    12                           	psect	bssBANK0,global,class=BANK0,space=1,delta=1,noexec
    13                           	psect	dataBANK0,global,class=BANK0,space=1,delta=1,noexec
    14                           	psect	bssBANK1,global,class=BANK1,space=1,delta=1,noexec
    15                           	psect	dataBANK1,global,class=BANK1,space=1,delta=1,noexec
    16                           	psect	inittext,global,class=CODE,space=0,delta=2
    17                           	psect	cstackBANK1,global,class=BANK1,space=1,delta=1,noexec
    18                           	psect	cstackCOMMON,global,class=COMMON,space=1,delta=1,noexec
    19                           	psect	cstackBANK0,global,class=BANK0,space=1,delta=1,noexec
    20                           	psect	maintext,global,class=CODE,space=0,split=1,delta=2
    21                           	psect	text1,local,class=CODE,space=0,merge=1,delta=2
    22                           	psect	text2,local,class=CODE,space=0,merge=1,delta=2
    23                           	psect	text3,local,class=CODE,space=0,merge=1,delta=2
    24                           	psect	text4,local,class=CODE,space=0,merge=1,delta=2
    25                           	psect	text5,local,class=CODE,space=0,merge=1,delta=2
    26                           	psect	text6,local,class=CODE,space=0,merge=1,delta=2
    27                           	psect	text7,local,class=CODE,space=0,merge=1,delta=2,group=1
    28                           	psect	text8,local,class=CODE,space=0,merge=1,delta=2,group=1
    29                           	psect	text9,local,class=CODE,space=0,merge=1,delta=2,group=1
    30                           	psect	text10,local,class=CODE,space=0,merge=1,delta=2,group=1
    31                           	psect	text11,local,class=CODE,space=0,merge=1,delta=2,group=1
    32                           	psect	text12,local,class=CODE,space=0,merge=1,delta=2,group=1
    33                           	psect	text13,local,class=CODE,space=0,merge=1,delta=2,group=1
    34                           	psect	text14,local,class=CODE,space=0,merge=1,delta=2,group=1
    35                           	psect	text15,local,class=CODE,space=0,merge=1,delta=2,group=1
    36                           	psect	text16,local,class=CODE,space=0,merge=1,delta=2,group=1
    37                           	psect	text17,local,class=CODE,space=0,merge=1,delta=2
    38                           	psect	text18,local,class=CODE,space=0,merge=1,delta=2
    39                           	psect	text19,local,class=CODE,space=0,merge=1,delta=2
    40                           	psect	text20,local,class=CODE,space=0,merge=1,delta=2
    41                           	psect	text21,local,class=CODE,space=0,merge=1,delta=2
    42                           	psect	text22,local,class=CODE,space=0,merge=1,delta=2
    43                           	psect	text23,local,class=CODE,space=0,merge=1,delta=2
    44                           	psect	text24,local,class=CODE,space=0,merge=1,delta=2
    45                           	psect	text25,local,class=CODE,space=0,merge=1,delta=2
    46                           	psect	text26,local,class=CODE,space=0,merge=1,delta=2
    47                           	psect	text27,local,class=CODE,space=0,merge=1,delta=2
    48                           	psect	intentry,global,class=CODE,space=0,delta=2
    49                           	psect	config,global,abs,ovrld,class=CONFIG,space=4,delta=2,noexec
    50                           	dabs	1,0x7E,2
    51     0000                     
    52                           ; Version 2.20
    53                           ; Generated 12/02/2020 GMT
    54                           ; 
    55                           ; Copyright © 2020, Microchip Technology Inc. and its subsidiaries ("Microchip")
    56                           ; All rights reserved.
    57                           ; 
    58                           ; This software is developed by Microchip Technology Inc. and its subsidiaries ("Microch
      +                          ip").
    59                           ; 
    60                           ; Redistribution and use in source and binary forms, with or without modification, are
    61                           ; permitted provided that the following conditions are met:
    62                           ; 
    63                           ;     1. Redistributions of source code must retain the above copyright notice, this lis
      +                          t of
    64                           ;        conditions and the following disclaimer.
    65                           ; 
    66                           ;     2. Redistributions in binary form must reproduce the above copyright notice, this 
      +                          list
    67                           ;        of conditions and the following disclaimer in the documentation and/or other
    68                           ;        materials provided with the distribution.
    69                           ; 
    70                           ;     3. Microchip's name may not be used to endorse or promote products derived from th
      +                          is
    71                           ;        software without specific prior written permission.
    72                           ; 
    73                           ; THIS SOFTWARE IS PROVIDED BY MICROCHIP "AS IS" AND ANY EXPRESS OR IMPLIED WARRANTIES,
    74                           ; INCLUDING, BUT NOT LIMITED TO, THE IMPLIED WARRANTIES OF MERCHANTABILITY AND FITNESS F
      +                          OR
    75                           ; PURPOSE ARE DISCLAIMED.  IN NO EVENT SHALL MICROCHIP BE LIABLE FOR ANY DIRECT, INDIREC
      +                          T,
    76                           ; INCIDENTAL, SPECIAL, EXEMPLARY, OR CONSEQUENTIAL DAMAGES (INCLUDING BUT NOT LIMITED TO
    77                           ; PROCUREMENT OF SUBSTITUTE GOODS OR SERVICES; LOSS OF USE, DATA OR PROFITS; OR BUSINESS
    78                           ; INTERRUPTION) HOWSOEVER CAUSED AND ON ANY THEORY OF LIABILITY, WHETHER IN CONTRACT, ST
      +                          RICT
    79                           ; LIABILITY, OR TORT (INCLUDING NEGLIGENCE OR OTHERWISE) ARISING IN ANY WAY OUT OF THE U
      +                          SE OF
    80                           ; THIS SOFTWARE, EVEN IF ADVISED OF THE POSSIBILITY OF SUCH DAMAGE.
    81                           ; 
    82                           ; 
    83                           ; Code-generator required, PIC16F877A Definitions
    84                           ; 
    85                           ; SFR Addresses
    86     0004                     fsr             equ	4
    87     0004                     fsr0            equ	4
    88     0000                     indf            equ	0
    89     0000                     indf0           equ	0
    90     0002                     pc              equ	2
    91     0002                     pcl             equ	2
    92     000A                     pclath          equ	10
    93     0003                     status          equ	3
    94     0000                     INDF            equ	0	;# 
    95     0001                     TMR0            equ	1	;# 
    96     0002                     PCL             equ	2	;# 
    97     0003                     STATUS          equ	3	;# 
    98     0004                     FSR             equ	4	;# 
    99     0005                     PORTA           equ	5	;# 
   100     0006                     PORTB           equ	6	;# 
   101     0007                     PORTC           equ	7	;# 
   102     0008                     PORTD           equ	8	;# 
   103     0009                     PORTE           equ	9	;# 
   104     000A                     PCLATH          equ	10	;# 
   105     000B                     INTCON          equ	11	;# 
   106     000C                     PIR1            equ	12	;# 
   107     000D                     PIR2            equ	13	;# 
   108     000E                     TMR1            equ	14	;# 
   109     000E                     TMR1L           equ	14	;# 
   110     000F                     TMR1H           equ	15	;# 
   111     0010                     T1CON           equ	16	;# 
   112     0011                     TMR2            equ	17	;# 
   113     0012                     T2CON           equ	18	;# 
   114     0013                     SSPBUF          equ	19	;# 
   115     0014                     SSPCON          equ	20	;# 
   116     0015                     CCPR1           equ	21	;# 
   117     0015                     CCPR1L          equ	21	;# 
   118     0016                     CCPR1H          equ	22	;# 
   119     0017                     CCP1CON         equ	23	;# 
   120     0018                     RCSTA           equ	24	;# 
   121     0019                     TXREG           equ	25	;# 
   122     001A                     RCREG           equ	26	;# 
   123     001B                     CCPR2           equ	27	;# 
   124     001B                     CCPR2L          equ	27	;# 
   125     001C                     CCPR2H          equ	28	;# 
   126     001D                     CCP2CON         equ	29	;# 
   127     001E                     ADRESH          equ	30	;# 
   128     001F                     ADCON0          equ	31	;# 
   129     0081                     OPTION_REG      equ	129	;# 
   130     0085                     TRISA           equ	133	;# 
   131     0086                     TRISB           equ	134	;# 
   132     0087                     TRISC           equ	135	;# 
   133     0088                     TRISD           equ	136	;# 
   134     0089                     TRISE           equ	137	;# 
   135     008C                     PIE1            equ	140	;# 
   136     008D                     PIE2            equ	141	;# 
   137     008E                     PCON            equ	142	;# 
   138     0091                     SSPCON2         equ	145	;# 
   139     0092                     PR2             equ	146	;# 
   140     0093                     SSPADD          equ	147	;# 
   141     0094                     SSPSTAT         equ	148	;# 
   142     0098                     TXSTA           equ	152	;# 
   143     0099                     SPBRG           equ	153	;# 
   144     009C                     CMCON           equ	156	;# 
   145     009D                     CVRCON          equ	157	;# 
   146     009E                     ADRESL          equ	158	;# 
   147     009F                     ADCON1          equ	159	;# 
   148     010C                     EEDATA          equ	268	;# 
   149     010D                     EEADR           equ	269	;# 
   150     010E                     EEDATH          equ	270	;# 
   151     010F                     EEADRH          equ	271	;# 
   152     018C                     EECON1          equ	396	;# 
   153     018D                     EECON2          equ	397	;# 
   154     0000                     INDF            equ	0	;# 
   155     0001                     TMR0            equ	1	;# 
   156     0002                     PCL             equ	2	;# 
   157     0003                     STATUS          equ	3	;# 
   158     0004                     FSR             equ	4	;# 
   159     0005                     PORTA           equ	5	;# 
   160     0006                     PORTB           equ	6	;# 
   161     0007                     PORTC           equ	7	;# 
   162     0008                     PORTD           equ	8	;# 
   163     0009                     PORTE           equ	9	;# 
   164     000A                     PCLATH          equ	10	;# 
   165     000B                     INTCON          equ	11	;# 
   166     000C                     PIR1            equ	12	;# 
   167     000D                     PIR2            equ	13	;# 
   168     000E                     TMR1            equ	14	;# 
   169     000E                     TMR1L           equ	14	;# 
   170     000F                     TMR1H           equ	15	;# 
   171     0010                     T1CON           equ	16	;# 
   172     0011                     TMR2            equ	17	;# 
   173     0012                     T2CON           equ	18	;# 
   174     0013                     SSPBUF          equ	19	;# 
   175     0014                     SSPCON          equ	20	;# 
   176     0015                     CCPR1           equ	21	;# 
   177     0015                     CCPR1L          equ	21	;# 
   178     0016                     CCPR1H          equ	22	;# 
   179     0017                     CCP1CON         equ	23	;# 
   180     0018                     RCSTA           equ	24	;# 
   181     0019                     TXREG           equ	25	;# 
   182     001A                     RCREG           equ	26	;# 
   183     001B                     CCPR2           equ	27	;# 
   184     001B                     CCPR2L          equ	27	;# 
   185     001C                     CCPR2H          equ	28	;# 
   186     001D                     CCP2CON         equ	29	;# 
   187     001E                     ADRESH          equ	30	;# 
   188     001F                     ADCON0          equ	31	;# 
   189     0081                     OPTION_REG      equ	129	;# 
   190     0085                     TRISA           equ	133	;# 
   191     0086                     TRISB           equ	134	;# 
   192     0087                     TRISC           equ	135	;# 
   193     0088                     TRISD           equ	136	;# 
   194     0089                     TRISE           equ	137	;# 
   195     008C                     PIE1            equ	140	;# 
   196     008D                     PIE2            equ	141	;# 
   197     008E                     PCON            equ	142	;# 
   198     0091                     SSPCON2         equ	145	;# 
   199     0092                     PR2             equ	146	;# 
   200     0093                     SSPADD          equ	147	;# 
   201     0094                     SSPSTAT         equ	148	;# 
   202     0098                     TXSTA           equ	152	;# 
   203     0099                     SPBRG           equ	153	;# 
   204     009C                     CMCON           equ	156	;# 
   205     009D                     CVRCON          equ	157	;# 
   206     009E                     ADRESL          equ	158	;# 
   207     009F                     ADCON1          equ	159	;# 
   208     010C                     EEDATA          equ	268	;# 
   209     010D                     EEADR           equ	269	;# 
   210     010E                     EEDATH          equ	270	;# 
   211     010F                     EEADRH          equ	271	;# 
   212     018C                     EECON1          equ	396	;# 
   213     018D                     EECON2          equ	397	;# 
   214     0000                     INDF            equ	0	;# 
   215     0001                     TMR0            equ	1	;# 
   216     0002                     PCL             equ	2	;# 
   217     0003                     STATUS          equ	3	;# 
   218     0004                     FSR             equ	4	;# 
   219     0005                     PORTA           equ	5	;# 
   220     0006                     PORTB           equ	6	;# 
   221     0007                     PORTC           equ	7	;# 
   222     0008                     PORTD           equ	8	;# 
   223     0009                     PORTE           equ	9	;# 
   224     000A                     PCLATH          equ	10	;# 
   225     000B                     INTCON          equ	11	;# 
   226     000C                     PIR1            equ	12	;# 
   227     000D                     PIR2            equ	13	;# 
   228     000E                     TMR1            equ	14	;# 
   229     000E                     TMR1L           equ	14	;# 
   230     000F                     TMR1H           equ	15	;# 
   231     0010                     T1CON           equ	16	;# 
   232     0011                     TMR2            equ	17	;# 
   233     0012                     T2CON           equ	18	;# 
   234     0013                     SSPBUF          equ	19	;# 
   235     0014                     SSPCON          equ	20	;# 
   236     0015                     CCPR1           equ	21	;# 
   237     0015                     CCPR1L          equ	21	;# 
   238     0016                     CCPR1H          equ	22	;# 
   239     0017                     CCP1CON         equ	23	;# 
   240     0018                     RCSTA           equ	24	;# 
   241     0019                     TXREG           equ	25	;# 
   242     001A                     RCREG           equ	26	;# 
   243     001B                     CCPR2           equ	27	;# 
   244     001B                     CCPR2L          equ	27	;# 
   245     001C                     CCPR2H          equ	28	;# 
   246     001D                     CCP2CON         equ	29	;# 
   247     001E                     ADRESH          equ	30	;# 
   248     001F                     ADCON0          equ	31	;# 
   249     0081                     OPTION_REG      equ	129	;# 
   250     0085                     TRISA           equ	133	;# 
   251     0086                     TRISB           equ	134	;# 
   252     0087                     TRISC           equ	135	;# 
   253     0088                     TRISD           equ	136	;# 
   254     0089                     TRISE           equ	137	;# 
   255     008C                     PIE1            equ	140	;# 
   256     008D                     PIE2            equ	141	;# 
   257     008E                     PCON            equ	142	;# 
   258     0091                     SSPCON2         equ	145	;# 
   259     0092                     PR2             equ	146	;# 
   260     0093                     SSPADD          equ	147	;# 
   261     0094                     SSPSTAT         equ	148	;# 
   262     0098                     TXSTA           equ	152	;# 
   263     0099                     SPBRG           equ	153	;# 
   264     009C                     CMCON           equ	156	;# 
   265     009D                     CVRCON          equ	157	;# 
   266     009E                     ADRESL          equ	158	;# 
   267     009F                     ADCON1          equ	159	;# 
   268     010C                     EEDATA          equ	268	;# 
   269     010D                     EEADR           equ	269	;# 
   270     010E                     EEDATH          equ	270	;# 
   271     010F                     EEADRH          equ	271	;# 
   272     018C                     EECON1          equ	396	;# 
   273     018D                     EECON2          equ	397	;# 
   274     0000                     INDF            equ	0	;# 
   275     0001                     TMR0            equ	1	;# 
   276     0002                     PCL             equ	2	;# 
   277     0003                     STATUS          equ	3	;# 
   278     0004                     FSR             equ	4	;# 
   279     0005                     PORTA           equ	5	;# 
   280     0006                     PORTB           equ	6	;# 
   281     0007                     PORTC           equ	7	;# 
   282     0008                     PORTD           equ	8	;# 
   283     0009                     PORTE           equ	9	;# 
   284     000A                     PCLATH          equ	10	;# 
   285     000B                     INTCON          equ	11	;# 
   286     000C                     PIR1            equ	12	;# 
   287     000D                     PIR2            equ	13	;# 
   288     000E                     TMR1            equ	14	;# 
   289     000E                     TMR1L           equ	14	;# 
   290     000F                     TMR1H           equ	15	;# 
   291     0010                     T1CON           equ	16	;# 
   292     0011                     TMR2            equ	17	;# 
   293     0012                     T2CON           equ	18	;# 
   294     0013                     SSPBUF          equ	19	;# 
   295     0014                     SSPCON          equ	20	;# 
   296     0015                     CCPR1           equ	21	;# 
   297     0015                     CCPR1L          equ	21	;# 
   298     0016                     CCPR1H          equ	22	;# 
   299     0017                     CCP1CON         equ	23	;# 
   300     0018                     RCSTA           equ	24	;# 
   301     0019                     TXREG           equ	25	;# 
   302     001A                     RCREG           equ	26	;# 
   303     001B                     CCPR2           equ	27	;# 
   304     001B                     CCPR2L          equ	27	;# 
   305     001C                     CCPR2H          equ	28	;# 
   306     001D                     CCP2CON         equ	29	;# 
   307     001E                     ADRESH          equ	30	;# 
   308     001F                     ADCON0          equ	31	;# 
   309     0081                     OPTION_REG      equ	129	;# 
   310     0085                     TRISA           equ	133	;# 
   311     0086                     TRISB           equ	134	;# 
   312     0087                     TRISC           equ	135	;# 
   313     0088                     TRISD           equ	136	;# 
   314     0089                     TRISE           equ	137	;# 
   315     008C                     PIE1            equ	140	;# 
   316     008D                     PIE2            equ	141	;# 
   317     008E                     PCON            equ	142	;# 
   318     0091                     SSPCON2         equ	145	;# 
   319     0092                     PR2             equ	146	;# 
   320     0093                     SSPADD          equ	147	;# 
   321     0094                     SSPSTAT         equ	148	;# 
   322     0098                     TXSTA           equ	152	;# 
   323     0099                     SPBRG           equ	153	;# 
   324     009C                     CMCON           equ	156	;# 
   325     009D                     CVRCON          equ	157	;# 
   326     009E                     ADRESL          equ	158	;# 
   327     009F                     ADCON1          equ	159	;# 
   328     010C                     EEDATA          equ	268	;# 
   329     010D                     EEADR           equ	269	;# 
   330     010E                     EEDATH          equ	270	;# 
   331     010F                     EEADRH          equ	271	;# 
   332     018C                     EECON1          equ	396	;# 
   333     018D                     EECON2          equ	397	;# 
   334     0000                     INDF            equ	0	;# 
   335     0001                     TMR0            equ	1	;# 
   336     0002                     PCL             equ	2	;# 
   337     0003                     STATUS          equ	3	;# 
   338     0004                     FSR             equ	4	;# 
   339     0005                     PORTA           equ	5	;# 
   340     0006                     PORTB           equ	6	;# 
   341     0007                     PORTC           equ	7	;# 
   342     0008                     PORTD           equ	8	;# 
   343     0009                     PORTE           equ	9	;# 
   344     000A                     PCLATH          equ	10	;# 
   345     000B                     INTCON          equ	11	;# 
   346     000C                     PIR1            equ	12	;# 
   347     000D                     PIR2            equ	13	;# 
   348     000E                     TMR1            equ	14	;# 
   349     000E                     TMR1L           equ	14	;# 
   350     000F                     TMR1H           equ	15	;# 
   351     0010                     T1CON           equ	16	;# 
   352     0011                     TMR2            equ	17	;# 
   353     0012                     T2CON           equ	18	;# 
   354     0013                     SSPBUF          equ	19	;# 
   355     0014                     SSPCON          equ	20	;# 
   356     0015                     CCPR1           equ	21	;# 
   357     0015                     CCPR1L          equ	21	;# 
   358     0016                     CCPR1H          equ	22	;# 
   359     0017                     CCP1CON         equ	23	;# 
   360     0018                     RCSTA           equ	24	;# 
   361     0019                     TXREG           equ	25	;# 
   362     001A                     RCREG           equ	26	;# 
   363     001B                     CCPR2           equ	27	;# 
   364     001B                     CCPR2L          equ	27	;# 
   365     001C                     CCPR2H          equ	28	;# 
   366     001D                     CCP2CON         equ	29	;# 
   367     001E                     ADRESH          equ	30	;# 
   368     001F                     ADCON0          equ	31	;# 
   369     0081                     OPTION_REG      equ	129	;# 
   370     0085                     TRISA           equ	133	;# 
   371     0086                     TRISB           equ	134	;# 
   372     0087                     TRISC           equ	135	;# 
   373     0088                     TRISD           equ	136	;# 
   374     0089                     TRISE           equ	137	;# 
   375     008C                     PIE1            equ	140	;# 
   376     008D                     PIE2            equ	141	;# 
   377     008E                     PCON            equ	142	;# 
   378     0091                     SSPCON2         equ	145	;# 
   379     0092                     PR2             equ	146	;# 
   380     0093                     SSPADD          equ	147	;# 
   381     0094                     SSPSTAT         equ	148	;# 
   382     0098                     TXSTA           equ	152	;# 
   383     0099                     SPBRG           equ	153	;# 
   384     009C                     CMCON           equ	156	;# 
   385     009D                     CVRCON          equ	157	;# 
   386     009E                     ADRESL          equ	158	;# 
   387     009F                     ADCON1          equ	159	;# 
   388     010C                     EEDATA          equ	268	;# 
   389     010D                     EEADR           equ	269	;# 
   390     010E                     EEDATH          equ	270	;# 
   391     010F                     EEADRH          equ	271	;# 
   392     018C                     EECON1          equ	396	;# 
   393     018D                     EECON2          equ	397	;# 
   394     0000                     INDF            equ	0	;# 
   395     0001                     TMR0            equ	1	;# 
   396     0002                     PCL             equ	2	;# 
   397     0003                     STATUS          equ	3	;# 
   398     0004                     FSR             equ	4	;# 
   399     0005                     PORTA           equ	5	;# 
   400     0006                     PORTB           equ	6	;# 
   401     0007                     PORTC           equ	7	;# 
   402     0008                     PORTD           equ	8	;# 
   403     0009                     PORTE           equ	9	;# 
   404     000A                     PCLATH          equ	10	;# 
   405     000B                     INTCON          equ	11	;# 
   406     000C                     PIR1            equ	12	;# 
   407     000D                     PIR2            equ	13	;# 
   408     000E                     TMR1            equ	14	;# 
   409     000E                     TMR1L           equ	14	;# 
   410     000F                     TMR1H           equ	15	;# 
   411     0010                     T1CON           equ	16	;# 
   412     0011                     TMR2            equ	17	;# 
   413     0012                     T2CON           equ	18	;# 
   414     0013                     SSPBUF          equ	19	;# 
   415     0014                     SSPCON          equ	20	;# 
   416     0015                     CCPR1           equ	21	;# 
   417     0015                     CCPR1L          equ	21	;# 
   418     0016                     CCPR1H          equ	22	;# 
   419     0017                     CCP1CON         equ	23	;# 
   420     0018                     RCSTA           equ	24	;# 
   421     0019                     TXREG           equ	25	;# 
   422     001A                     RCREG           equ	26	;# 
   423     001B                     CCPR2           equ	27	;# 
   424     001B                     CCPR2L          equ	27	;# 
   425     001C                     CCPR2H          equ	28	;# 
   426     001D                     CCP2CON         equ	29	;# 
   427     001E                     ADRESH          equ	30	;# 
   428     001F                     ADCON0          equ	31	;# 
   429     0081                     OPTION_REG      equ	129	;# 
   430     0085                     TRISA           equ	133	;# 
   431     0086                     TRISB           equ	134	;# 
   432     0087                     TRISC           equ	135	;# 
   433     0088                     TRISD           equ	136	;# 
   434     0089                     TRISE           equ	137	;# 
   435     008C                     PIE1            equ	140	;# 
   436     008D                     PIE2            equ	141	;# 
   437     008E                     PCON            equ	142	;# 
   438     0091                     SSPCON2         equ	145	;# 
   439     0092                     PR2             equ	146	;# 
   440     0093                     SSPADD          equ	147	;# 
   441     0094                     SSPSTAT         equ	148	;# 
   442     0098                     TXSTA           equ	152	;# 
   443     0099                     SPBRG           equ	153	;# 
   444     009C                     CMCON           equ	156	;# 
   445     009D                     CVRCON          equ	157	;# 
   446     009E                     ADRESL          equ	158	;# 
   447     009F                     ADCON1          equ	159	;# 
   448     010C                     EEDATA          equ	268	;# 
   449     010D                     EEADR           equ	269	;# 
   450     010E                     EEDATH          equ	270	;# 
   451     010F                     EEADRH          equ	271	;# 
   452     018C                     EECON1          equ	396	;# 
   453     018D                     EECON2          equ	397	;# 
   454     0000                     INDF            equ	0	;# 
   455     0001                     TMR0            equ	1	;# 
   456     0002                     PCL             equ	2	;# 
   457     0003                     STATUS          equ	3	;# 
   458     0004                     FSR             equ	4	;# 
   459     0005                     PORTA           equ	5	;# 
   460     0006                     PORTB           equ	6	;# 
   461     0007                     PORTC           equ	7	;# 
   462     0008                     PORTD           equ	8	;# 
   463     0009                     PORTE           equ	9	;# 
   464     000A                     PCLATH          equ	10	;# 
   465     000B                     INTCON          equ	11	;# 
   466     000C                     PIR1            equ	12	;# 
   467     000D                     PIR2            equ	13	;# 
   468     000E                     TMR1            equ	14	;# 
   469     000E                     TMR1L           equ	14	;# 
   470     000F                     TMR1H           equ	15	;# 
   471     0010                     T1CON           equ	16	;# 
   472     0011                     TMR2            equ	17	;# 
   473     0012                     T2CON           equ	18	;# 
   474     0013                     SSPBUF          equ	19	;# 
   475     0014                     SSPCON          equ	20	;# 
   476     0015                     CCPR1           equ	21	;# 
   477     0015                     CCPR1L          equ	21	;# 
   478     0016                     CCPR1H          equ	22	;# 
   479     0017                     CCP1CON         equ	23	;# 
   480     0018                     RCSTA           equ	24	;# 
   481     0019                     TXREG           equ	25	;# 
   482     001A                     RCREG           equ	26	;# 
   483     001B                     CCPR2           equ	27	;# 
   484     001B                     CCPR2L          equ	27	;# 
   485     001C                     CCPR2H          equ	28	;# 
   486     001D                     CCP2CON         equ	29	;# 
   487     001E                     ADRESH          equ	30	;# 
   488     001F                     ADCON0          equ	31	;# 
   489     0081                     OPTION_REG      equ	129	;# 
   490     0085                     TRISA           equ	133	;# 
   491     0086                     TRISB           equ	134	;# 
   492     0087                     TRISC           equ	135	;# 
   493     0088                     TRISD           equ	136	;# 
   494     0089                     TRISE           equ	137	;# 
   495     008C                     PIE1            equ	140	;# 
   496     008D                     PIE2            equ	141	;# 
   497     008E                     PCON            equ	142	;# 
   498     0091                     SSPCON2         equ	145	;# 
   499     0092                     PR2             equ	146	;# 
   500     0093                     SSPADD          equ	147	;# 
   501     0094                     SSPSTAT         equ	148	;# 
   502     0098                     TXSTA           equ	152	;# 
   503     0099                     SPBRG           equ	153	;# 
   504     009C                     CMCON           equ	156	;# 
   505     009D                     CVRCON          equ	157	;# 
   506     009E                     ADRESL          equ	158	;# 
   507     009F                     ADCON1          equ	159	;# 
   508     010C                     EEDATA          equ	268	;# 
   509     010D                     EEADR           equ	269	;# 
   510     010E                     EEDATH          equ	270	;# 
   511     010F                     EEADRH          equ	271	;# 
   512     018C                     EECON1          equ	396	;# 
   513     018D                     EECON2          equ	397	;# 
   514                           
   515                           	psect	idataCOMMON
   516     07FF                     __pidataCOMMON:
   517                           
   518                           ;initializer for read_digital_keypad@once
   519     07FF  3401               	retlw	1
   520                           
   521                           	psect	idataBANK0
   522     0804                     __pidataBANK0:
   523                           
   524                           ;initializer for read_digital_keypad@longpressed
   525     0804  3401               	retlw	1
   526     0805  3400               	retlw	0
   527                           
   528                           ;initializer for _reset_flag
   529     0806  3411               	retlw	17
   530                           
   531                           ;initializer for _operational_mode
   532     0807  3401               	retlw	1
   533                           
   534                           	psect	idataBANK1
   535     14C7                     __pidataBANK1:
   536                           
   537                           ;initializer for _washing_program
   538     14C7  3468               	retlw	low (STR_7| (0+32768))
   539     14C8  3491               	retlw	high (STR_7| (0+32768))
   540     14C9  346E               	retlw	low (STR_8| (0+32768))
   541     14CA  3491               	retlw	high (STR_8| (0+32768))
   542     14CB  34F9               	retlw	low (STR_9| (0+32768))
   543     14CC  3490               	retlw	high (STR_9| (0+32768))
   544     14CD  3449               	retlw	low (STR_10| (0+32768))
   545     14CE  3491               	retlw	high (STR_10| (0+32768))
   546     14CF  34C3               	retlw	low (STR_11| (0+32768))
   547     14D0  3490               	retlw	high (STR_11| (0+32768))
   548     14D1  34CE               	retlw	low (STR_12| (0+32768))
   549     14D2  3490               	retlw	high (STR_12| (0+32768))
   550     14D3  3433               	retlw	low (STR_13| (0+32768))
   551     14D4  3491               	retlw	high (STR_13| (0+32768))
   552     14D5  34D9               	retlw	low (STR_14| (0+32768))
   553     14D6  3490               	retlw	high (STR_14| (0+32768))
   554     14D7  340D               	retlw	low (STR_15| (0+32768))
   555     14D8  3491               	retlw	high (STR_15| (0+32768))
   556     14D9  3421               	retlw	low (STR_16| (0+32768))
   557     14DA  3491               	retlw	high (STR_16| (0+32768))
   558     14DB  3403               	retlw	low (STR_17| (0+32768))
   559     14DC  3491               	retlw	high (STR_17| (0+32768))
   560     14DD  34B8               	retlw	low (STR_18| (0+32768))
   561     14DE  3490               	retlw	high (STR_18| (0+32768))
   562                           
   563                           ;initializer for _water_level
   564     14DF  348D               	retlw	low (STR_22| (0+32768))
   565     14E0  3491               	retlw	high (STR_22| (0+32768))
   566     14E1  3492               	retlw	low (STR_23| (0+32768))
   567     14E2  3491               	retlw	high (STR_23| (0+32768))
   568     14E3  3442               	retlw	low (STR_24| (0+32768))
   569     14E4  3491               	retlw	high (STR_24| (0+32768))
   570     14E5  347E               	retlw	low (STR_25| (0+32768))
   571     14E6  3491               	retlw	high (STR_25| (0+32768))
   572     14E7  3496               	retlw	low (STR_26| (0+32768))
   573     14E8  3491               	retlw	high (STR_26| (0+32768))
   574     0006                     _PORTB          set	6
   575     0008                     _PORTD          set	8
   576     0030                     _RB0            set	48
   577     0061                     _TMR2IF         set	97
   578     0049                     _RE1            set	73
   579     004A                     _RE2            set	74
   580     0092                     _TMR2ON         set	146
   581     003A                     _RC2            set	58
   582     0039                     _RC1            set	57
   583     005E                     _PEIE           set	94
   584     005F                     _GIE            set	95
   585     0092                     _PR2            set	146
   586     0086                     _TRISB          set	134
   587     0088                     _TRISD          set	136
   588     0461                     _TMR2IE         set	1121
   589     0449                     _TRISE1         set	1097
   590     044A                     _TRISE2         set	1098
   591     043A                     _TRISC2         set	1082
   592     0439                     _TRISC1         set	1081
   593                           
   594                           	psect	strings
   595     119A                     __pstrings:
   596     119A                     stringtab:
   597     119A                     __stringtab:
   598                           
   599                           ;	String table - string pointers are 2 bytes each
   600     119A  1BFF               	btfsc	btemp+1,7
   601     119B  29A4               	ljmp	stringcode
   602     119C  1383               	bcf	3,7
   603     119D  187F               	btfsc	btemp+1,0
   604     119E  1783               	bsf	3,7
   605     119F  0800               	movf	0,w
   606     11A0  0A84               	incf	4,f
   607     11A1  1903               	skipnz
   608     11A2  0AFF               	incf	btemp+1,f
   609     11A3  0008               	return
   610     11A4                     stringcode:
   611     11A4  087F               	movf	btemp+1,w
   612     11A5  397F               	andlw	127
   613     11A6  008A               	movwf	10
   614     11A7  0804               	movf	4,w
   615     11A8  0A84               	incf	4,f
   616     11A9  1903               	skipnz
   617     11AA  0AFF               	incf	btemp+1,f
   618     11AB  0082               	movwf	2
   619     11AC                     __stringbase:
   620     11AC                     __end_of__stringtab:
   621                           
   622                           	psect	stringtext
   623     1000                     __pstringtext:
   624     1000                     STR_40:
   625     1000  3450               	retlw	80	;'P'
   626     1001  3472               	retlw	114	;'r'
   627     1002  346F               	retlw	111	;'o'
   628     1003  3467               	retlw	103	;'g'
   629     1004  3472               	retlw	114	;'r'
   630     1005  3461               	retlw	97	;'a'
   631     1006  346D               	retlw	109	;'m'
   632     1007  3420               	retlw	32	;' '
   633     1008  3463               	retlw	99	;'c'
   634     1009  346F               	retlw	111	;'o'
   635     100A  346D               	retlw	109	;'m'
   636     100B  3470               	retlw	112	;'p'
   637     100C  346C               	retlw	108	;'l'
   638     100D  3465               	retlw	101	;'e'
   639     100E  3474               	retlw	116	;'t'
   640     100F  3465               	retlw	101	;'e'
   641     1010  3464               	retlw	100	;'d'
   642     1011  3400               	retlw	0
   643     1012                     STR_43:
   644     1012  3450               	retlw	80	;'P'
   645     1013  346C               	retlw	108	;'l'
   646     1014  3465               	retlw	101	;'e'
   647     1015  3461               	retlw	97	;'a'
   648     1016  3473               	retlw	115	;'s'
   649     1017  3465               	retlw	101	;'e'
   650     1018  3420               	retlw	32	;' '
   651     1019  3463               	retlw	99	;'c'
   652     101A  346C               	retlw	108	;'l'
   653     101B  346F               	retlw	111	;'o'
   654     101C  3473               	retlw	115	;'s'
   655     101D  3465               	retlw	101	;'e'
   656     101E  3420               	retlw	32	;' '
   657     101F  3464               	retlw	100	;'d'
   658     1020  346F               	retlw	111	;'o'
   659     1021  346F               	retlw	111	;'o'
   660     1022  3472               	retlw	114	;'r'
   661     1023  3400               	retlw	0
   662     1024                     STR_20:
   663     1024  3457               	retlw	87	;'W'
   664     1025  3441               	retlw	65	;'A'
   665     1026  3453               	retlw	83	;'S'
   666     1027  3448               	retlw	72	;'H'
   667     1028  3449               	retlw	73	;'I'
   668     1029  344E               	retlw	78	;'N'
   669     102A  3447               	retlw	71	;'G'
   670     102B  3420               	retlw	32	;' '
   671     102C  344D               	retlw	77	;'M'
   672     102D  3441               	retlw	65	;'A'
   673     102E  3443               	retlw	67	;'C'
   674     102F  3448               	retlw	72	;'H'
   675     1030  3449               	retlw	73	;'I'
   676     1031  344E               	retlw	78	;'N'
   677     1032  3445               	retlw	69	;'E'
   678     1033  3420               	retlw	32	;' '
   679     1034  3400               	retlw	0
   680     1035                     STR_21:
   681     1035  3457               	retlw	87	;'W'
   682     1036  3441               	retlw	65	;'A'
   683     1037  3453               	retlw	83	;'S'
   684     1038  3448               	retlw	72	;'H'
   685     1039  3449               	retlw	73	;'I'
   686     103A  344E               	retlw	78	;'N'
   687     103B  3447               	retlw	71	;'G'
   688     103C  3420               	retlw	32	;' '
   689     103D  3450               	retlw	80	;'P'
   690     103E  3452               	retlw	82	;'R'
   691     103F  344F               	retlw	79	;'O'
   692     1040  3447               	retlw	71	;'G'
   693     1041  3452               	retlw	82	;'R'
   694     1042  3441               	retlw	65	;'A'
   695     1043  344D               	retlw	77	;'M'
   696     1044  3420               	retlw	32	;' '
   697     1045  3400               	retlw	0
   698     1046                     STR_32:
   699     1046  3435               	retlw	53	;'5'
   700     1047  343A               	retlw	58	;':'
   701     1048  3453               	retlw	83	;'S'
   702     1049  3454               	retlw	84	;'T'
   703     104A  3441               	retlw	65	;'A'
   704     104B  3452               	retlw	82	;'R'
   705     104C  3454               	retlw	84	;'T'
   706     104D  3420               	retlw	32	;' '
   707     104E  3436               	retlw	54	;'6'
   708     104F  343A               	retlw	58	;':'
   709     1050  3450               	retlw	80	;'P'
   710     1051  3441               	retlw	65	;'A'
   711     1052  3455               	retlw	85	;'U'
   712     1053  3453               	retlw	83	;'S'
   713     1054  3445               	retlw	69	;'E'
   714     1055  3400               	retlw	0
   715     1056                     STR_1:
   716     1056  3450               	retlw	80	;'P'
   717     1057  3452               	retlw	82	;'R'
   718     1058  3445               	retlw	69	;'E'
   719     1059  3453               	retlw	83	;'S'
   720     105A  3453               	retlw	83	;'S'
   721     105B  3420               	retlw	32	;' '
   722     105C  344B               	retlw	75	;'K'
   723     105D  3445               	retlw	69	;'E'
   724     105E  3459               	retlw	89	;'Y'
   725     105F  3420               	retlw	32	;' '
   726     1060  3435               	retlw	53	;'5'
   727     1061  3420               	retlw	32	;' '
   728     1062  3454               	retlw	84	;'T'
   729     1063  344F               	retlw	79	;'O'
   730     1064  3420               	retlw	32	;' '
   731     1065  3400               	retlw	0
   732     1066                     STR_3:
   733     1066  3457               	retlw	87	;'W'
   734     1067  3441               	retlw	65	;'A'
   735     1068  3453               	retlw	83	;'S'
   736     1069  3448               	retlw	72	;'H'
   737     106A  3449               	retlw	73	;'I'
   738     106B  344E               	retlw	78	;'N'
   739     106C  3447               	retlw	71	;'G'
   740     106D  3420               	retlw	32	;' '
   741     106E  344D               	retlw	77	;'M'
   742     106F  3441               	retlw	65	;'A'
   743     1070  3443               	retlw	67	;'C'
   744     1071  3448               	retlw	72	;'H'
   745     1072  3449               	retlw	73	;'I'
   746     1073  344E               	retlw	78	;'N'
   747     1074  3445               	retlw	69	;'E'
   748     1075  3400               	retlw	0
   749     1076                     STR_41:
   750     1076  3452               	retlw	82	;'R'
   751     1077  3465               	retlw	101	;'e'
   752     1078  346D               	retlw	109	;'m'
   753     1079  346F               	retlw	111	;'o'
   754     107A  3476               	retlw	118	;'v'
   755     107B  3465               	retlw	101	;'e'
   756     107C  3420               	retlw	32	;' '
   757     107D  3463               	retlw	99	;'c'
   758     107E  346C               	retlw	108	;'l'
   759     107F  346F               	retlw	111	;'o'
   760     1080  3474               	retlw	116	;'t'
   761     1081  3468               	retlw	104	;'h'
   762     1082  3473               	retlw	115	;'s'
   763     1083  3400               	retlw	0
   764     1084                     STR_19:
   765     1084  3450               	retlw	80	;'P'
   766     1085  344F               	retlw	79	;'O'
   767     1086  3457               	retlw	87	;'W'
   768     1087  3445               	retlw	69	;'E'
   769     1088  3452               	retlw	82	;'R'
   770     1089  3449               	retlw	73	;'I'
   771     108A  344E               	retlw	78	;'N'
   772     108B  3447               	retlw	71	;'G'
   773     108C  3420               	retlw	32	;' '
   774     108D  344F               	retlw	79	;'O'
   775     108E  344E               	retlw	78	;'N'
   776     108F  3420               	retlw	32	;' '
   777     1090  3400               	retlw	0
   778     1091                     STR_27:
   779     1091  3457               	retlw	87	;'W'
   780     1092  3441               	retlw	65	;'A'
   781     1093  3454               	retlw	84	;'T'
   782     1094  3445               	retlw	69	;'E'
   783     1095  3452               	retlw	82	;'R'
   784     1096  345F               	retlw	95	;'_'
   785     1097  344C               	retlw	76	;'L'
   786     1098  3445               	retlw	69	;'E'
   787     1099  3456               	retlw	86	;'V'
   788     109A  3445               	retlw	69	;'E'
   789     109B  344C               	retlw	76	;'L'
   790     109C  343A               	retlw	58	;':'
   791     109D  3400               	retlw	0
   792     109E                     STR_42:
   793     109E  3444               	retlw	68	;'D'
   794     109F  346F               	retlw	111	;'o'
   795     10A0  346F               	retlw	111	;'o'
   796     10A1  3472               	retlw	114	;'r'
   797     10A2  3420               	retlw	32	;' '
   798     10A3  3469               	retlw	105	;'i'
   799     10A4  3473               	retlw	115	;'s'
   800     10A5  3420               	retlw	32	;' '
   801     10A6  346F               	retlw	111	;'o'
   802     10A7  3470               	retlw	112	;'p'
   803     10A8  3465               	retlw	101	;'e'
   804     10A9  346E               	retlw	110	;'n'
   805     10AA  3400               	retlw	0
   806     10AB                     STR_4:
   807     10AB  3450               	retlw	80	;'P'
   808     10AC  3472               	retlw	114	;'r'
   809     10AD  3465               	retlw	101	;'e'
   810     10AE  3473               	retlw	115	;'s'
   811     10AF  3473               	retlw	115	;'s'
   812     10B0  3420               	retlw	32	;' '
   813     10B1  3453               	retlw	83	;'S'
   814     10B2  3477               	retlw	119	;'w'
   815     10B3  3469               	retlw	105	;'i'
   816     10B4  3474               	retlw	116	;'t'
   817     10B5  3463               	retlw	99	;'c'
   818     10B6  3468               	retlw	104	;'h'
   819     10B7  3400               	retlw	0
   820     10B8                     STR_18:
   821     10B8  3441               	retlw	65	;'A'
   822     10B9  3471               	retlw	113	;'q'
   823     10BA  3475               	retlw	117	;'u'
   824     10BB  3461               	retlw	97	;'a'
   825     10BC  3420               	retlw	32	;' '
   826     10BD  3473               	retlw	115	;'s'
   827     10BE  3474               	retlw	116	;'t'
   828     10BF  346F               	retlw	111	;'o'
   829     10C0  3472               	retlw	114	;'r'
   830     10C1  3465               	retlw	101	;'e'
   831     10C2  3400               	retlw	0
   832     10C3                     STR_11:
   833     10C3  3453               	retlw	83	;'S'
   834     10C4  3474               	retlw	116	;'t'
   835     10C5  3461               	retlw	97	;'a'
   836     10C6  3469               	retlw	105	;'i'
   837     10C7  346E               	retlw	110	;'n'
   838     10C8  3420               	retlw	32	;' '
   839     10C9  3477               	retlw	119	;'w'
   840     10CA  3461               	retlw	97	;'a'
   841     10CB  3473               	retlw	115	;'s'
   842     10CC  3468               	retlw	104	;'h'
   843     10CD  3400               	retlw	0
   844     10CE                     STR_12:
   845     10CE  3445               	retlw	69	;'E'
   846     10CF  3463               	retlw	99	;'c'
   847     10D0  346F               	retlw	111	;'o'
   848     10D1  3463               	retlw	99	;'c'
   849     10D2  346F               	retlw	111	;'o'
   850     10D3  3474               	retlw	116	;'t'
   851     10D4  3474               	retlw	116	;'t'
   852     10D5  346F               	retlw	111	;'o'
   853     10D6  346E               	retlw	110	;'n'
   854     10D7  3473               	retlw	115	;'s'
   855     10D8  3400               	retlw	0
   856     10D9                     STR_14:
   857     10D9  3442               	retlw	66	;'B'
   858     10DA  3465               	retlw	101	;'e'
   859     10DB  3464               	retlw	100	;'d'
   860     10DC  3420               	retlw	32	;' '
   861     10DD  3473               	retlw	115	;'s'
   862     10DE  3468               	retlw	104	;'h'
   863     10DF  3465               	retlw	101	;'e'
   864     10E0  3465               	retlw	101	;'e'
   865     10E1  3474               	retlw	116	;'t'
   866     10E2  3473               	retlw	115	;'s'
   867     10E3  3400               	retlw	0
   868     10E4                     STR_5:
   869     10E4  3453               	retlw	83	;'S'
   870     10E5  3457               	retlw	87	;'W'
   871     10E6  3435               	retlw	53	;'5'
   872     10E7  343A               	retlw	58	;':'
   873     10E8  3420               	retlw	32	;' '
   874     10E9  3453               	retlw	83	;'S'
   875     10EA  3454               	retlw	84	;'T'
   876     10EB  3441               	retlw	65	;'A'
   877     10EC  3452               	retlw	82	;'R'
   878     10ED  3454               	retlw	84	;'T'
   879     10EE  3400               	retlw	0
   880     10EF                     STR_30:
   881     10EF  3446               	retlw	70	;'F'
   882     10F0  3475               	retlw	117	;'u'
   883     10F1  346E               	retlw	110	;'n'
   884     10F2  3463               	retlw	99	;'c'
   885     10F3  3474               	retlw	116	;'t'
   886     10F4  3469               	retlw	105	;'i'
   887     10F5  346F               	retlw	111	;'o'
   888     10F6  346E               	retlw	110	;'n'
   889     10F7  343A               	retlw	58	;':'
   890     10F8  3400               	retlw	0
   891     10F9                     STR_9:
   892     10F9  3444               	retlw	68	;'D'
   893     10FA  3465               	retlw	101	;'e'
   894     10FB  346C               	retlw	108	;'l'
   895     10FC  3469               	retlw	105	;'i'
   896     10FD  3463               	retlw	99	;'c'
   897     10FE  3461               	retlw	97	;'a'
   898     10FF  3474               	retlw	116	;'t'
   899     1100  3465               	retlw	101	;'e'
   900     1101  3473               	retlw	115	;'s'
   901     1102  3400               	retlw	0
   902     1103                     STR_17:
   903     1103  3457               	retlw	87	;'W'
   904     1104  3461               	retlw	97	;'a'
   905     1105  3473               	retlw	115	;'s'
   906     1106  3468               	retlw	104	;'h'
   907     1107  3420               	retlw	32	;' '
   908     1108  346F               	retlw	111	;'o'
   909     1109  346E               	retlw	110	;'n'
   910     110A  346C               	retlw	108	;'l'
   911     110B  3479               	retlw	121	;'y'
   912     110C  3400               	retlw	0
   913     110D                     STR_15:
   914     110D  3452               	retlw	82	;'R'
   915     110E  3469               	retlw	105	;'i'
   916     110F  346E               	retlw	110	;'n'
   917     1110  3473               	retlw	115	;'s'
   918     1111  3465               	retlw	101	;'e'
   919     1112  342B               	retlw	43	;'+'
   920     1113  3444               	retlw	68	;'D'
   921     1114  3472               	retlw	114	;'r'
   922     1115  3479               	retlw	121	;'y'
   923     1116  3400               	retlw	0
   924     1117                     STR_6:
   925     1117  3453               	retlw	83	;'S'
   926     1118  3457               	retlw	87	;'W'
   927     1119  3436               	retlw	54	;'6'
   928     111A  343A               	retlw	58	;':'
   929     111B  3420               	retlw	32	;' '
   930     111C  3453               	retlw	83	;'S'
   931     111D  3454               	retlw	84	;'T'
   932     111E  344F               	retlw	79	;'O'
   933     111F  3450               	retlw	80	;'P'
   934     1120  3400               	retlw	0
   935     1121                     STR_16:
   936     1121  3444               	retlw	68	;'D'
   937     1122  3472               	retlw	114	;'r'
   938     1123  3479               	retlw	121	;'y'
   939     1124  3420               	retlw	32	;' '
   940     1125  346F               	retlw	111	;'o'
   941     1126  346E               	retlw	110	;'n'
   942     1127  346C               	retlw	108	;'l'
   943     1128  3479               	retlw	121	;'y'
   944     1129  3400               	retlw	0
   945     112A                     STR_2:
   946     112A  3450               	retlw	80	;'P'
   947     112B  344F               	retlw	79	;'O'
   948     112C  3457               	retlw	87	;'W'
   949     112D  3445               	retlw	69	;'E'
   950     112E  3452               	retlw	82	;'R'
   951     112F  3420               	retlw	32	;' '
   952     1130  344F               	retlw	79	;'O'
   953     1131  344E               	retlw	78	;'N'
   954     1132  3400               	retlw	0
   955     1133                     STR_13:
   956     1133  3457               	retlw	87	;'W'
   957     1134  346F               	retlw	111	;'o'
   958     1135  346F               	retlw	111	;'o'
   959     1136  346C               	retlw	108	;'l'
   960     1137  3465               	retlw	101	;'e'
   961     1138  346E               	retlw	110	;'n'
   962     1139  3473               	retlw	115	;'s'
   963     113A  3400               	retlw	0
   964     113B                     STR_36:
   965     113B  3452               	retlw	82	;'R'
   966     113C  3469               	retlw	105	;'i'
   967     113D  346E               	retlw	110	;'n'
   968     113E  3473               	retlw	115	;'s'
   969     113F  3465               	retlw	101	;'e'
   970     1140  3420               	retlw	32	;' '
   971     1141  3400               	retlw	0
   972     1142                     STR_24:
   973     1142  344D               	retlw	77	;'M'
   974     1143  3465               	retlw	101	;'e'
   975     1144  3464               	retlw	100	;'d'
   976     1145  3469               	retlw	105	;'i'
   977     1146  3475               	retlw	117	;'u'
   978     1147  346D               	retlw	109	;'m'
   979     1148  3400               	retlw	0
   980     1149                     STR_10:
   981     1149  3457               	retlw	87	;'W'
   982     114A  3468               	retlw	104	;'h'
   983     114B  3469               	retlw	105	;'i'
   984     114C  3474               	retlw	116	;'t'
   985     114D  3465               	retlw	101	;'e'
   986     114E  3473               	retlw	115	;'s'
   987     114F  3400               	retlw	0
   988     1150                     STR_35:
   989     1150  3453               	retlw	83	;'S'
   990     1151  3470               	retlw	112	;'p'
   991     1152  3469               	retlw	105	;'i'
   992     1153  346E               	retlw	110	;'n'
   993     1154  3420               	retlw	32	;' '
   994     1155  3400               	retlw	0
   995     1156                     STR_29:
   996     1156  3454               	retlw	84	;'T'
   997     1157  3469               	retlw	105	;'i'
   998     1158  346D               	retlw	109	;'m'
   999     1159  3465               	retlw	101	;'e'
  1000     115A  343A               	retlw	58	;':'
  1001     115B  3400               	retlw	0
  1002     115C                     STR_28:
  1003     115C  3450               	retlw	80	;'P'
  1004     115D  3472               	retlw	114	;'r'
  1005     115E  346F               	retlw	111	;'o'
  1006     115F  3467               	retlw	103	;'g'
  1007     1160  343A               	retlw	58	;':'
  1008     1161  3400               	retlw	0
  1009     1162                     STR_34:
  1010     1162  3452               	retlw	82	;'R'
  1011     1163  3469               	retlw	105	;'i'
  1012     1164  346E               	retlw	110	;'n'
  1013     1165  3473               	retlw	115	;'s'
  1014     1166  3465               	retlw	101	;'e'
  1015     1167  3400               	retlw	0
  1016     1168                     STR_7:
  1017     1168  3444               	retlw	68	;'D'
  1018     1169  3461               	retlw	97	;'a'
  1019     116A  3469               	retlw	105	;'i'
  1020     116B  346C               	retlw	108	;'l'
  1021     116C  3479               	retlw	121	;'y'
  1022     116D  3400               	retlw	0
  1023     116E                     STR_8:
  1024     116E  3448               	retlw	72	;'H'
  1025     116F  3465               	retlw	101	;'e'
  1026     1170  3461               	retlw	97	;'a'
  1027     1171  3476               	retlw	118	;'v'
  1028     1172  3479               	retlw	121	;'y'
  1029     1173  3400               	retlw	0
  1030     1174                     STR_31:
  1031     1174  3454               	retlw	84	;'T'
  1032     1175  3449               	retlw	73	;'I'
  1033     1176  344D               	retlw	77	;'M'
  1034     1177  3445               	retlw	69	;'E'
  1035     1178  3400               	retlw	0
  1036     1179                     STR_45:
  1037     1179  3454               	retlw	84	;'T'
  1038     117A  3469               	retlw	105	;'i'
  1039     117B  346D               	retlw	109	;'m'
  1040     117C  3465               	retlw	101	;'e'
  1041     117D  3400               	retlw	0
  1042     117E                     STR_25:
  1043     117E  3448               	retlw	72	;'H'
  1044     117F  3469               	retlw	105	;'i'
  1045     1180  3467               	retlw	103	;'g'
  1046     1181  3468               	retlw	104	;'h'
  1047     1182  3400               	retlw	0
  1048     1183                     STR_33:
  1049     1183  3457               	retlw	87	;'W'
  1050     1184  3461               	retlw	97	;'a'
  1051     1185  3473               	retlw	115	;'s'
  1052     1186  3468               	retlw	104	;'h'
  1053     1187  3400               	retlw	0
  1054     1188                     STR_38:
  1055     1188  3453               	retlw	83	;'S'
  1056     1189  3470               	retlw	112	;'p'
  1057     118A  3469               	retlw	105	;'i'
  1058     118B  346E               	retlw	110	;'n'
  1059     118C  3400               	retlw	0
  1060     118D                     STR_22:
  1061     118D  3441               	retlw	65	;'A'
  1062     118E  3475               	retlw	117	;'u'
  1063     118F  3474               	retlw	116	;'t'
  1064     1190  346F               	retlw	111	;'o'
  1065     1191  3400               	retlw	0
  1066     1192                     STR_23:
  1067     1192  344C               	retlw	76	;'L'
  1068     1193  346F               	retlw	111	;'o'
  1069     1194  3477               	retlw	119	;'w'
  1070     1195  3400               	retlw	0
  1071     1196                     STR_26:
  1072     1196  344D               	retlw	77	;'M'
  1073     1197  3461               	retlw	97	;'a'
  1074     1198  3478               	retlw	120	;'x'
  1075     1199  3400               	retlw	0
  1076     10C9                     STR_39          equ	STR_11+6
  1077     1046                     STR_46          equ	STR_32
  1078     10EF                     STR_44          equ	STR_30
  1079     1150                     STR_37          equ	STR_35
  1080                           
  1081                           	psect	cinit
  1082     000F                     start_initialization:	
  1083                           ; #config settings
  1084                           
  1085     000F                     __initialization:
  1086                           
  1087                           ; Initialize objects allocated to BANK1
  1088     000F  1383               	bcf	3,7	;select IRP bank0
  1089     0010  30C2               	movlw	low (__pdataBANK1+34)
  1090     0011  00FD               	movwf	btemp+-1
  1091     0012  3014               	movlw	high __pidataBANK1
  1092     0013  00FE               	movwf	btemp
  1093     0014  30C7               	movlw	low __pidataBANK1
  1094     0015  00FF               	movwf	btemp+1
  1095     0016  30A0               	movlw	low __pdataBANK1
  1096     0017  0084               	movwf	4
  1097     0018  160A  118A  2469  120A  118A  	fcall	init_ram0
  1098                           
  1099                           ; Initialize objects allocated to BANK0
  1100     001D  3070               	movlw	low (__pdataBANK0+4)
  1101     001E  00FD               	movwf	btemp+-1
  1102     001F  3008               	movlw	high __pidataBANK0
  1103     0020  00FE               	movwf	btemp
  1104     0021  3004               	movlw	low __pidataBANK0
  1105     0022  00FF               	movwf	btemp+1
  1106     0023  306C               	movlw	low __pdataBANK0
  1107     0024  0084               	movwf	4
  1108     0025  160A  118A  2469  120A  118A  	fcall	init_ram0
  1109                           
  1110                           ; Initialize objects allocated to COMMON
  1111     002A  120A  118A  27FF  120A  118A  	fcall	__pidataCOMMON	;fetch initializer
  1112     002F  00FB               	movwf	__pdataCOMMON& (0+127)
  1113                           
  1114                           ; Clear objects allocated to BANK1
  1115     0030  1683               	bsf	3,5	;RP0=1, select bank1
  1116     0031  1303               	bcf	3,6	;RP1=0, select bank1
  1117     0032  01C2               	clrf	__pbssBANK1& (0+127)
  1118     0033  01C3               	clrf	(__pbssBANK1+1)& (0+127)
  1119     0034  01C4               	clrf	(__pbssBANK1+2)& (0+127)
  1120     0035  01C5               	clrf	(__pbssBANK1+3)& (0+127)
  1121                           
  1122                           ; Clear objects allocated to BANK0
  1123     0036  1283               	bcf	3,5	;RP0=0, select bank0
  1124     0037  1303               	bcf	3,6	;RP1=0, select bank0
  1125     0038  01DF               	clrf	__pbssBANK0& (0+127)
  1126     0039  01E0               	clrf	(__pbssBANK0+1)& (0+127)
  1127     003A  01E1               	clrf	(__pbssBANK0+2)& (0+127)
  1128     003B  01E2               	clrf	(__pbssBANK0+3)& (0+127)
  1129     003C  01E3               	clrf	(__pbssBANK0+4)& (0+127)
  1130     003D  01E4               	clrf	(__pbssBANK0+5)& (0+127)
  1131     003E  01E5               	clrf	(__pbssBANK0+6)& (0+127)
  1132     003F  01E6               	clrf	(__pbssBANK0+7)& (0+127)
  1133     0040  01E7               	clrf	(__pbssBANK0+8)& (0+127)
  1134     0041  01E8               	clrf	(__pbssBANK0+9)& (0+127)
  1135     0042  01E9               	clrf	(__pbssBANK0+10)& (0+127)
  1136     0043  01EA               	clrf	(__pbssBANK0+11)& (0+127)
  1137     0044  01EB               	clrf	(__pbssBANK0+12)& (0+127)
  1138                           
  1139                           ; Clear objects allocated to COMMON
  1140     0045  01F9               	clrf	__pbssCOMMON& (0+127)
  1141     0046  01FA               	clrf	(__pbssCOMMON+1)& (0+127)
  1142     0047                     end_of_initialization:	
  1143                           ;End of C runtime variable initialization code
  1144                           
  1145     0047                     __end_of__initialization:
  1146     0047  0183               	clrf	3
  1147     0048  120A  158A  2B09   	ljmp	_main	;jump to C main() function
  1148                           
  1149                           	psect	bssCOMMON
  1150     0079                     __pbssCOMMON:
  1151     0079                     _level:
  1152     0079                     	ds	1
  1153     007A                     _program_no:
  1154     007A                     	ds	1
  1155                           
  1156                           	psect	dataCOMMON
  1157     007B                     __pdataCOMMON:
  1158     007B                     read_digital_keypad@once:
  1159     007B                     	ds	1
  1160                           
  1161                           	psect	bssBANK0
  1162     005F                     __pbssBANK0:
  1163     005F                     _time:
  1164     005F                     	ds	2
  1165     0061                     _spin_time:
  1166     0061                     	ds	2
  1167     0063                     _rinse_time:
  1168     0063                     	ds	2
  1169     0065                     _wash_time:
  1170     0065                     	ds	2
  1171     0067                     _total_time:
  1172     0067                     	ds	2
  1173     0069                     _min:
  1174     0069                     	ds	1
  1175     006A                     _sec:
  1176     006A                     	ds	1
  1177     006B                     read_digital_keypad@pre_key:
  1178     006B                     	ds	1
  1179                           
  1180                           	psect	dataBANK0
  1181     006C                     __pdataBANK0:
  1182     006C                     read_digital_keypad@longpressed:
  1183     006C                     	ds	2
  1184     006E                     _reset_flag:
  1185     006E                     	ds	1
  1186     006F                     _operational_mode:
  1187     006F                     	ds	1
  1188                           
  1189                           	psect	bssBANK1
  1190     00C2                     __pbssBANK1:
  1191     00C2                     isr@count:
  1192     00C2                     	ds	4
  1193                           
  1194                           	psect	dataBANK1
  1195     00A0                     __pdataBANK1:
  1196     00A0                     _washing_program:
  1197     00A0                     	ds	24
  1198     00B8                     _water_level:
  1199     00B8                     	ds	10
  1200                           
  1201                           	psect	inittext
  1202     1465                     init_fetch0:	
  1203                           ;	Called with low address in FSR and high address in W
  1204                           
  1205     1465  087E               	movf	btemp,w
  1206     1466  008A               	movwf	10
  1207     1467  087F               	movf	btemp+1,w
  1208     1468  0082               	movwf	2
  1209     1469                     init_ram0:	
  1210                           ;Called with:
  1211                           ;	high address of idata address in btemp 
  1212                           ;	low address of idata address in btemp+1 
  1213                           ;	low address of data in FSR
  1214                           ;	high address + 1 of data in btemp-1
  1215                           
  1216     1469  160A  118A  2465  160A  118A  	fcall	init_fetch0
  1217     146E  0080               	movwf	0
  1218     146F  0A84               	incf	4,f
  1219     1470  0804               	movf	4,w
  1220     1471  067D               	xorwf	btemp+-1,w
  1221     1472  1903               	btfsc	3,2
  1222     1473  3400               	retlw	0
  1223     1474  0AFF               	incf	btemp+1,f
  1224     1475  1903               	btfsc	3,2
  1225     1476  0AFE               	incf	btemp,f
  1226     1477  2C69               	goto	init_ram0
  1227                           
  1228                           	psect	cstackBANK1
  1229     00C6                     __pcstackBANK1:
  1230     00C6                     ??_main:
  1231                           
  1232                           ; 1 bytes @ 0x0
  1233     00C6                     	ds	3
  1234     00C9                     main@key:
  1235                           
  1236                           ; 1 bytes @ 0x3
  1237     00C9                     	ds	1
  1238                           
  1239                           	psect	cstackCOMMON
  1240     0070                     __pcstackCOMMON:
  1241     0070                     ?_init_clcd:
  1242     0070                     ?_init_digital_keypad:	
  1243                           ; 1 bytes @ 0x0
  1244                           
  1245     0070                     ?_init_timer2:	
  1246                           ; 1 bytes @ 0x0
  1247                           
  1248     0070                     ?_read_digital_keypad:	
  1249                           ; 1 bytes @ 0x0
  1250                           
  1251     0070                     ?_clear_screen:	
  1252                           ; 1 bytes @ 0x0
  1253                           
  1254     0070                     ?_power_on_screen:	
  1255                           ; 1 bytes @ 0x0
  1256                           
  1257     0070                     ?_set_time:	
  1258                           ; 1 bytes @ 0x0
  1259                           
  1260     0070                     ?_washing_program_display:	
  1261                           ; 1 bytes @ 0x0
  1262                           
  1263     0070                     ?_water_level_screen:	
  1264                           ; 1 bytes @ 0x0
  1265                           
  1266     0070                     ?_run_program:	
  1267                           ; 1 bytes @ 0x0
  1268                           
  1269     0070                     ?_door_status_check:	
  1270                           ; 1 bytes @ 0x0
  1271                           
  1272     0070                     ?_init_config:	
  1273                           ; 1 bytes @ 0x0
  1274                           
  1275     0070                     ?_main:	
  1276                           ; 1 bytes @ 0x0
  1277                           
  1278     0070                     ?_init_display_controller:	
  1279                           ; 1 bytes @ 0x0
  1280                           
  1281     0070                     ?_isr:	
  1282                           ; 1 bytes @ 0x0
  1283                           
  1284     0070                     read_digital_keypad@mode:	
  1285                           ; 1 bytes @ 0x0
  1286                           
  1287     0070                     ??_isr:	
  1288                           ; 1 bytes @ 0x0
  1289                           
  1290                           
  1291                           ; 1 bytes @ 0x0
  1292     0070                     	ds	2
  1293     0072                     ?_clcd_write:
  1294     0072                     ?__Umul8_16:	
  1295                           ; 1 bytes @ 0x2
  1296                           
  1297     0072                     ?___wmul:	
  1298                           ; 2 bytes @ 0x2
  1299                           
  1300     0072                     ?___awdiv:	
  1301                           ; 2 bytes @ 0x2
  1302                           
  1303     0072                     ?___awmod:	
  1304                           ; 2 bytes @ 0x2
  1305                           
  1306     0072                     ?___xxtofl:	
  1307                           ; 2 bytes @ 0x2
  1308                           
  1309     0072                     clcd_write@mode:	
  1310                           ; 4 bytes @ 0x2
  1311                           
  1312     0072                     read_digital_keypad@key:	
  1313                           ; 1 bytes @ 0x2
  1314                           
  1315     0072                     ___fladd@signs:	
  1316                           ; 1 bytes @ 0x2
  1317                           
  1318     0072                     __Umul8_16@multiplicand:	
  1319                           ; 1 bytes @ 0x2
  1320                           
  1321     0072                     ___wmul@multiplier:	
  1322                           ; 1 bytes @ 0x2
  1323                           
  1324     0072                     ___awdiv@divisor:	
  1325                           ; 2 bytes @ 0x2
  1326                           
  1327     0072                     ___awmod@divisor:	
  1328                           ; 2 bytes @ 0x2
  1329                           
  1330     0072                     ___xxtofl@val:	
  1331                           ; 2 bytes @ 0x2
  1332                           
  1333     0072                     ??_init_digital_keypad:	
  1334                           ; 4 bytes @ 0x2
  1335                           
  1336     0072                     ??_init_timer2:	
  1337                           ; 1 bytes @ 0x2
  1338                           
  1339     0072                     ??_read_digital_keypad:	
  1340                           ; 1 bytes @ 0x2
  1341                           
  1342     0072                     ??_set_time:	
  1343                           ; 1 bytes @ 0x2
  1344                           
  1345                           
  1346                           ; 1 bytes @ 0x2
  1347     0072                     	ds	1
  1348     0073                     ___fladd@aexp:
  1349     0073                     ??_clcd_write:	
  1350                           ; 1 bytes @ 0x3
  1351                           
  1352                           
  1353                           ; 1 bytes @ 0x3
  1354     0073                     	ds	1
  1355     0074                     ___fladd@bexp:
  1356     0074                     ___wmul@multiplicand:	
  1357                           ; 1 bytes @ 0x4
  1358                           
  1359     0074                     ___awdiv@dividend:	
  1360                           ; 2 bytes @ 0x4
  1361                           
  1362     0074                     ___awmod@dividend:	
  1363                           ; 2 bytes @ 0x4
  1364                           
  1365     0074                     ??__Umul8_16:	
  1366                           ; 2 bytes @ 0x4
  1367                           
  1368                           
  1369                           ; 1 bytes @ 0x4
  1370     0074                     	ds	1
  1371     0075                     clcd_write@byte:
  1372     0075                     ___fladd@grs:	
  1373                           ; 1 bytes @ 0x5
  1374                           
  1375                           
  1376                           ; 1 bytes @ 0x5
  1377     0075                     	ds	1
  1378     0076                     ___awmod@counter:
  1379     0076                     ___fltol@sign1:	
  1380                           ; 1 bytes @ 0x6
  1381                           
  1382     0076                     ___wmul@product:	
  1383                           ; 1 bytes @ 0x6
  1384                           
  1385     0076                     ??_clear_screen:	
  1386                           ; 2 bytes @ 0x6
  1387                           
  1388     0076                     ??_init_display_controller:	
  1389                           ; 1 bytes @ 0x6
  1390                           
  1391     0076                     ??___wmul:	
  1392                           ; 1 bytes @ 0x6
  1393                           
  1394     0076                     ??___awdiv:	
  1395                           ; 1 bytes @ 0x6
  1396                           
  1397     0076                     ??___awmod:	
  1398                           ; 1 bytes @ 0x6
  1399                           
  1400     0076                     ??___flsub:	
  1401                           ; 1 bytes @ 0x6
  1402                           
  1403                           
  1404                           ; 1 bytes @ 0x6
  1405     0076                     	ds	1
  1406     0077                     ___awmod@sign:
  1407     0077                     ___fltol@exp1:	
  1408                           ; 1 bytes @ 0x7
  1409                           
  1410                           
  1411                           ; 1 bytes @ 0x7
  1412     0077                     	ds	1
  1413     0078                     ?_clcd_putch:
  1414     0078                     clcd_putch@addr:	
  1415                           ; 1 bytes @ 0x8
  1416                           
  1417     0078                     ??_init_clcd:	
  1418                           ; 1 bytes @ 0x8
  1419                           
  1420     0078                     ??_clcd_print:	
  1421                           ; 1 bytes @ 0x8
  1422                           
  1423     0078                     ??_door_status_check:	
  1424                           ; 1 bytes @ 0x8
  1425                           
  1426     0078                     ??_init_config:	
  1427                           ; 1 bytes @ 0x8
  1428                           
  1429                           
  1430                           ; 1 bytes @ 0x8
  1431     0078                     	ds	1
  1432     0079                     ??_clcd_putch:
  1433                           
  1434                           	psect	cstackBANK0
  1435     0020                     __pcstackBANK0:	
  1436                           ; 1 bytes @ 0x9
  1437                           
  1438     0020                     ?_clcd_print:
  1439     0020                     ?___fladd:	
  1440                           ; 1 bytes @ 0x0
  1441                           
  1442     0020                     ___awdiv@counter:	
  1443                           ; 4 bytes @ 0x0
  1444                           
  1445     0020                     clcd_print@str:	
  1446                           ; 1 bytes @ 0x0
  1447                           
  1448     0020                     __Umul8_16@product:	
  1449                           ; 2 bytes @ 0x0
  1450                           
  1451     0020                     ___fladd@b:	
  1452                           ; 2 bytes @ 0x0
  1453                           
  1454     0020                     ??___xxtofl:	
  1455                           ; 4 bytes @ 0x0
  1456                           
  1457                           
  1458                           ; 1 bytes @ 0x0
  1459     0020                     	ds	1
  1460     0021                     ___awdiv@sign:
  1461                           
  1462                           ; 1 bytes @ 0x1
  1463     0021                     	ds	1
  1464     0022                     clcd_print@addr:
  1465     0022                     ___awdiv@quotient:	
  1466                           ; 1 bytes @ 0x2
  1467                           
  1468     0022                     __Umul8_16@word_mpld:	
  1469                           ; 2 bytes @ 0x2
  1470                           
  1471                           
  1472                           ; 2 bytes @ 0x2
  1473     0022                     	ds	2
  1474     0024                     clcd_putch@data:
  1475     0024                     __Umul8_16@multiplier:	
  1476                           ; 1 bytes @ 0x4
  1477                           
  1478     0024                     ___xxtofl@sign:	
  1479                           ; 1 bytes @ 0x4
  1480                           
  1481     0024                     ___fladd@a:	
  1482                           ; 1 bytes @ 0x4
  1483                           
  1484                           
  1485                           ; 4 bytes @ 0x4
  1486     0024                     	ds	1
  1487     0025                     ___xxtofl@exp:
  1488     0025                     ??_power_on_screen:	
  1489                           ; 1 bytes @ 0x5
  1490                           
  1491     0025                     ??_washing_program_display:	
  1492                           ; 1 bytes @ 0x5
  1493                           
  1494     0025                     ??_water_level_screen:	
  1495                           ; 1 bytes @ 0x5
  1496                           
  1497                           
  1498                           ; 1 bytes @ 0x5
  1499     0025                     	ds	1
  1500     0026                     ___xxtofl@arg:
  1501                           
  1502                           ; 4 bytes @ 0x6
  1503     0026                     	ds	2
  1504     0028                     power_on_screen@i:
  1505     0028                     washing_program_display@key:	
  1506                           ; 1 bytes @ 0x8
  1507                           
  1508     0028                     water_level_screen@key:	
  1509                           ; 1 bytes @ 0x8
  1510                           
  1511     0028                     ??___fladd:	
  1512                           ; 1 bytes @ 0x8
  1513                           
  1514                           
  1515                           ; 1 bytes @ 0x8
  1516     0028                     	ds	1
  1517     0029                     power_on_screen@i_186:
  1518                           
  1519                           ; 1 bytes @ 0x9
  1520     0029                     	ds	1
  1521     002A                     ?___flmul:
  1522     002A                     ___flmul@b:	
  1523                           ; 4 bytes @ 0xA
  1524                           
  1525                           
  1526                           ; 4 bytes @ 0xA
  1527     002A                     	ds	4
  1528     002E                     ___flmul@a:
  1529                           
  1530                           ; 4 bytes @ 0xE
  1531     002E                     	ds	4
  1532     0032                     ??___flmul:
  1533                           
  1534                           ; 1 bytes @ 0x12
  1535     0032                     	ds	5
  1536     0037                     ___flmul@sign:
  1537                           
  1538                           ; 1 bytes @ 0x17
  1539     0037                     	ds	1
  1540     0038                     ___flmul@aexp:
  1541                           
  1542                           ; 1 bytes @ 0x18
  1543     0038                     	ds	1
  1544     0039                     ___flmul@grs:
  1545                           
  1546                           ; 4 bytes @ 0x19
  1547     0039                     	ds	4
  1548     003D                     ___flmul@bexp:
  1549                           
  1550                           ; 1 bytes @ 0x1D
  1551     003D                     	ds	1
  1552     003E                     ___flmul@prod:
  1553                           
  1554                           ; 4 bytes @ 0x1E
  1555     003E                     	ds	4
  1556     0042                     ___flmul@temp:
  1557                           
  1558                           ; 2 bytes @ 0x22
  1559     0042                     	ds	2
  1560     0044                     ?___fltol:
  1561     0044                     ?___flsub:	
  1562                           ; 4 bytes @ 0x24
  1563                           
  1564     0044                     ___fltol@f1:	
  1565                           ; 4 bytes @ 0x24
  1566                           
  1567     0044                     ___flsub@a:	
  1568                           ; 4 bytes @ 0x24
  1569                           
  1570                           
  1571                           ; 4 bytes @ 0x24
  1572     0044                     	ds	4
  1573     0048                     ___flsub@b:
  1574     0048                     ??___fltol:	
  1575                           ; 4 bytes @ 0x28
  1576                           
  1577                           
  1578                           ; 1 bytes @ 0x28
  1579     0048                     	ds	4
  1580     004C                     ?___flge:
  1581     004C                     ___flge@ff1:	
  1582                           ; 1 bit 
  1583                           
  1584                           
  1585                           ; 4 bytes @ 0x2C
  1586     004C                     	ds	4
  1587     0050                     ___flge@ff2:
  1588                           
  1589                           ; 4 bytes @ 0x30
  1590     0050                     	ds	4
  1591     0054                     ??___flge:
  1592                           
  1593                           ; 1 bytes @ 0x34
  1594     0054                     	ds	4
  1595     0058                     ??_run_program:
  1596                           
  1597                           ; 1 bytes @ 0x38
  1598     0058                     	ds	6
  1599     005E                     run_program@key:
  1600                           
  1601                           ; 1 bytes @ 0x3E
  1602     005E                     	ds	1
  1603                           
  1604                           	psect	maintext
  1605     0B09                     __pmaintext:	
  1606 ;;
  1607 ;;Main: autosize = 0, tempsize = 3, incstack = 0, save=0
  1608 ;;
  1609 ;; *************** function _main *****************
  1610 ;; Defined at:
  1611 ;;		line 30 in file "../../Internship Project/Emertxe project/Washing_Machine.X/main.c"
  1612 ;; Parameters:    Size  Location     Type
  1613 ;;		None
  1614 ;; Auto vars:     Size  Location     Type
  1615 ;;  key             1    3[BANK1 ] unsigned char 
  1616 ;; Return value:  Size  Location     Type
  1617 ;;                  1    wreg      void 
  1618 ;; Registers used:
  1619 ;;		wreg, fsr0l, fsr0h, status,2, status,0, btemp+1, pclath, cstack
  1620 ;; Tracked objects:
  1621 ;;		On entry : B00/0
  1622 ;;		On exit  : 0/0
  1623 ;;		Unchanged: 0/0
  1624 ;; Data sizes:     COMMON   BANK0   BANK1   BANK3   BANK2
  1625 ;;      Params:         0       0       0       0       0
  1626 ;;      Locals:         0       0       1       0       0
  1627 ;;      Temps:          0       0       3       0       0
  1628 ;;      Totals:         0       0       4       0       0
  1629 ;;Total ram usage:        4 bytes
  1630 ;; Hardware stack levels required when called: 5
  1631 ;; This function calls:
  1632 ;;		_clcd_print
  1633 ;;		_clear_screen
  1634 ;;		_init_config
  1635 ;;		_power_on_screen
  1636 ;;		_read_digital_keypad
  1637 ;;		_run_program
  1638 ;;		_set_time
  1639 ;;		_washing_program_display
  1640 ;;		_water_level_screen
  1641 ;; This function is called by:
  1642 ;;		Startup code after reset
  1643 ;; This function uses a non-reentrant model
  1644 ;;
  1645                           
  1646     0B09                     _main:	
  1647                           ;psect for function _main
  1648                           
  1649     0B09                     l4185:	
  1650                           ;incstack = 0
  1651                           ; Regs used in _main: [wreg-fsr0h+status,2+status,0+btemp+1+pclath+cstack]
  1652                           
  1653                           
  1654                           ;../../Internship Project/Emertxe project/Washing_Machine.X/main.c: 31:             brea
      +                          k;;../../Internship Project/Emertxe project/Washing_Machine.X/main.c: 32:         }
  1655     0B09  160A  118A  248D  120A  158A  	fcall	_init_config
  1656     0B0E                     l4187:
  1657                           
  1658                           ;../../Internship Project/Emertxe project/Washing_Machine.X/main.c: 34:     }
  1659     0B0E  3056               	movlw	low (STR_1| (0+32768))
  1660     0B0F  1283               	bcf	3,5	;RP0=0, select bank0
  1661     0B10  1303               	bcf	3,6	;RP1=0, select bank0
  1662     0B11  00A0               	movwf	clcd_print@str
  1663     0B12  3090               	movlw	high (STR_1| (0+32768))
  1664     0B13  00A1               	movwf	clcd_print@str+1
  1665     0B14  3081               	movlw	129
  1666     0B15  00A2               	movwf	clcd_print@addr
  1667     0B16  160A  118A  2532  120A  158A  	fcall	_clcd_print
  1668     0B1B                     l4189:
  1669                           
  1670                           ;../../Internship Project/Emertxe project/Washing_Machine.X/main.c: 35: 
  1671     0B1B  302A               	movlw	low (STR_2| (0+32768))
  1672     0B1C  1283               	bcf	3,5	;RP0=0, select bank0
  1673     0B1D  1303               	bcf	3,6	;RP1=0, select bank0
  1674     0B1E  00A0               	movwf	clcd_print@str
  1675     0B1F  3091               	movlw	high (STR_2| (0+32768))
  1676     0B20  00A1               	movwf	clcd_print@str+1
  1677     0B21  30C5               	movlw	197
  1678     0B22  00A2               	movwf	clcd_print@addr
  1679     0B23  160A  118A  2532  120A  158A  	fcall	_clcd_print
  1680     0B28                     l4191:
  1681                           
  1682                           ;../../Internship Project/Emertxe project/Washing_Machine.X/main.c: 36: 
  1683     0B28  3066               	movlw	low (STR_3| (0+32768))
  1684     0B29  1283               	bcf	3,5	;RP0=0, select bank0
  1685     0B2A  1303               	bcf	3,6	;RP1=0, select bank0
  1686     0B2B  00A0               	movwf	clcd_print@str
  1687     0B2C  3090               	movlw	high (STR_3| (0+32768))
  1688     0B2D  00A1               	movwf	clcd_print@str+1
  1689     0B2E  3091               	movlw	145
  1690     0B2F  00A2               	movwf	clcd_print@addr
  1691     0B30  160A  118A  2532  120A  158A  	fcall	_clcd_print
  1692     0B35                     l4193:
  1693                           
  1694                           ;../../Internship Project/Emertxe project/Washing_Machine.X/main.c: 41:     power_on_scr
      +                          een();
  1695     0B35  3001               	movlw	1
  1696     0B36  160A  118A  2723  120A  158A  	fcall	_read_digital_keypad
  1697     0B3B  1683               	bsf	3,5	;RP0=1, select bank1
  1698     0B3C  1303               	bcf	3,6	;RP1=0, select bank1
  1699     0B3D  00C9               	movwf	main@key^(0+128)
  1700     0B3E                     l4195:
  1701                           
  1702                           ;../../Internship Project/Emertxe project/Washing_Machine.X/main.c: 42: 
  1703     0B3E  302F               	movlw	47
  1704     0B3F  0649               	xorwf	main@key^(0+128),w
  1705     0B40  1D03               	btfss	3,2
  1706     0B41  2B43               	goto	u5531
  1707     0B42  2B44               	goto	u5530
  1708     0B43                     u5531:
  1709     0B43  2B45               	goto	l4199
  1710     0B44                     u5530:
  1711     0B44  2B51               	goto	l4201
  1712     0B45                     l4199:
  1713                           
  1714                           ;../../Internship Project/Emertxe project/Washing_Machine.X/main.c: 45: 
  1715     0B45  3041               	movlw	65
  1716     0B46  1683               	bsf	3,5	;RP0=1, select bank1
  1717     0B47  1303               	bcf	3,6	;RP1=0, select bank1
  1718     0B48  00C7               	movwf	(??_main^(0+128)+1)
  1719     0B49  30ED               	movlw	237
  1720     0B4A  00C6               	movwf	??_main^(0+128)
  1721     0B4B                     u5627:
  1722     0B4B  0BC6               	decfsz	??_main^(0+128),f
  1723     0B4C  2B4B               	goto	u5627
  1724     0B4D  0BC7               	decfsz	(??_main^(0+128)+1),f
  1725     0B4E  2B4B               	goto	u5627
  1726     0B4F  2B50               	nop2
  1727     0B50  2B35               	goto	l4193
  1728     0B51                     l4201:
  1729                           
  1730                           ;../../Internship Project/Emertxe project/Washing_Machine.X/main.c: 52:             oper
      +                          ational_mode = 0x03;
  1731     0B51  160A  118A  2454  120A  158A  	fcall	_clear_screen
  1732     0B56                     l4203:
  1733                           
  1734                           ;../../Internship Project/Emertxe project/Washing_Machine.X/main.c: 53:             clea
      +                          r_screen();
  1735     0B56  160A  118A  2791  120A  158A  	fcall	_power_on_screen
  1736     0B5B                     l4205:
  1737                           
  1738                           ;../../Internship Project/Emertxe project/Washing_Machine.X/main.c: 56:             clcd
      +                          _print("SW6: STOP", (0x90 + 0));
  1739     0B5B  3001               	movlw	1
  1740     0B5C  160A  118A  2723  120A  158A  	fcall	_read_digital_keypad
  1741     0B61  1683               	bsf	3,5	;RP0=1, select bank1
  1742     0B62  1303               	bcf	3,6	;RP1=0, select bank1
  1743     0B63  00C9               	movwf	main@key^(0+128)
  1744     0B64                     l4207:
  1745                           
  1746                           ;../../Internship Project/Emertxe project/Washing_Machine.X/main.c: 58:             _del
      +                          ay((unsigned long)((200)*(20000000/4000.0)));
  1747     0B64  3082               	movlw	130
  1748     0B65  1683               	bsf	3,5	;RP0=1, select bank1
  1749     0B66  1303               	bcf	3,6	;RP1=0, select bank1
  1750     0B67  00C7               	movwf	(??_main^(0+128)+1)
  1751     0B68  30DD               	movlw	221
  1752     0B69  00C6               	movwf	??_main^(0+128)
  1753     0B6A                     u5637:
  1754     0B6A  0BC6               	decfsz	??_main^(0+128),f
  1755     0B6B  2B6A               	goto	u5637
  1756     0B6C  0BC7               	decfsz	(??_main^(0+128)+1),f
  1757     0B6D  2B6A               	goto	u5637
  1758     0B6E                     l4209:
  1759                           
  1760                           ;../../Internship Project/Emertxe project/Washing_Machine.X/main.c: 59:         }
  1761     0B6E  3099               	movlw	153
  1762     0B6F  1683               	bsf	3,5	;RP0=1, select bank1
  1763     0B70  1303               	bcf	3,6	;RP1=0, select bank1
  1764     0B71  0649               	xorwf	main@key^(0+128),w
  1765     0B72  1D03               	btfss	3,2
  1766     0B73  2B75               	goto	u5541
  1767     0B74  2B76               	goto	u5540
  1768     0B75                     u5541:
  1769     0B75  2B90               	goto	l4217
  1770     0B76                     u5540:
  1771     0B76                     l4211:
  1772     0B76  1283               	bcf	3,5	;RP0=0, select bank0
  1773     0B77  1303               	bcf	3,6	;RP1=0, select bank0
  1774     0B78  036F               	decf	_operational_mode,w
  1775     0B79  1D03               	btfss	3,2
  1776     0B7A  2B7C               	goto	u5551
  1777     0B7B  2B7D               	goto	u5550
  1778     0B7C                     u5551:
  1779     0B7C  2B90               	goto	l4217
  1780     0B7D                     u5550:
  1781     0B7D                     l4213:
  1782                           
  1783                           ;../../Internship Project/Emertxe project/Washing_Machine.X/main.c: 60:         else if(
      +                          key == 0x2F && operational_mode ==0x44){
  1784     0B7D  3002               	movlw	2
  1785     0B7E  00EF               	movwf	_operational_mode
  1786                           
  1787                           ;../../Internship Project/Emertxe project/Washing_Machine.X/main.c: 61:             oper
      +                          ational_mode = 0x04;
  1788     0B7F  3022               	movlw	34
  1789     0B80  00EE               	movwf	_reset_flag
  1790     0B81                     l4215:
  1791                           
  1792                           ;../../Internship Project/Emertxe project/Washing_Machine.X/main.c: 62:             TMR2
      +                          ON = 1;
  1793     0B81  3006               	movlw	6
  1794     0B82  1683               	bsf	3,5	;RP0=1, select bank1
  1795     0B83  1303               	bcf	3,6	;RP1=0, select bank1
  1796     0B84  00C8               	movwf	(??_main^(0+128)+2)
  1797     0B85  3013               	movlw	19
  1798     0B86  00C7               	movwf	(??_main^(0+128)+1)
  1799     0B87  30AD               	movlw	173
  1800     0B88  00C6               	movwf	??_main^(0+128)
  1801     0B89                     u5647:
  1802     0B89  0BC6               	decfsz	??_main^(0+128),f
  1803     0B8A  2B89               	goto	u5647
  1804     0B8B  0BC7               	decfsz	(??_main^(0+128)+1),f
  1805     0B8C  2B89               	goto	u5647
  1806     0B8D  0BC8               	decfsz	(??_main^(0+128)+2),f
  1807     0B8E  2B89               	goto	u5647
  1808                           
  1809                           ;../../Internship Project/Emertxe project/Washing_Machine.X/main.c: 63:             RC2 
      +                          = 1;
  1810     0B8F  2C28               	goto	l4259
  1811     0B90                     l4217:
  1812     0B90  3099               	movlw	153
  1813     0B91  1683               	bsf	3,5	;RP0=1, select bank1
  1814     0B92  1303               	bcf	3,6	;RP1=0, select bank1
  1815     0B93  0649               	xorwf	main@key^(0+128),w
  1816     0B94  1D03               	btfss	3,2
  1817     0B95  2B97               	goto	u5561
  1818     0B96  2B98               	goto	u5560
  1819     0B97                     u5561:
  1820     0B97  2BD4               	goto	l4235
  1821     0B98                     u5560:
  1822     0B98                     l4219:
  1823     0B98  3002               	movlw	2
  1824     0B99  1283               	bcf	3,5	;RP0=0, select bank0
  1825     0B9A  1303               	bcf	3,6	;RP1=0, select bank0
  1826     0B9B  066F               	xorwf	_operational_mode,w
  1827     0B9C  1D03               	btfss	3,2
  1828     0B9D  2B9F               	goto	u5571
  1829     0B9E  2BA0               	goto	u5570
  1830     0B9F                     u5571:
  1831     0B9F  2BD4               	goto	l4235
  1832     0BA0                     u5570:
  1833     0BA0                     l4221:
  1834                           
  1835                           ;../../Internship Project/Emertxe project/Washing_Machine.X/main.c: 64:         }
  1836     0BA0  3003               	movlw	3
  1837     0BA1  00EF               	movwf	_operational_mode
  1838     0BA2                     l4223:
  1839                           
  1840                           ;../../Internship Project/Emertxe project/Washing_Machine.X/main.c: 65:         switch (
      +                          operational_mode) {
  1841     0BA2  160A  118A  2454  120A  158A  	fcall	_clear_screen
  1842     0BA7                     l4225:
  1843                           
  1844                           ;../../Internship Project/Emertxe project/Washing_Machine.X/main.c: 66: 
  1845     0BA7  30AB               	movlw	low (STR_4| (0+32768))
  1846     0BA8  1283               	bcf	3,5	;RP0=0, select bank0
  1847     0BA9  1303               	bcf	3,6	;RP1=0, select bank0
  1848     0BAA  00A0               	movwf	clcd_print@str
  1849     0BAB  3090               	movlw	high (STR_4| (0+32768))
  1850     0BAC  00A1               	movwf	clcd_print@str+1
  1851     0BAD  3080               	movlw	128
  1852     0BAE  00A2               	movwf	clcd_print@addr
  1853     0BAF  160A  118A  2532  120A  158A  	fcall	_clcd_print
  1854     0BB4                     l4227:
  1855                           
  1856                           ;../../Internship Project/Emertxe project/Washing_Machine.X/main.c: 67:             case
      +                           0x01:
  1857     0BB4  30E4               	movlw	low (STR_5| (0+32768))
  1858     0BB5  1283               	bcf	3,5	;RP0=0, select bank0
  1859     0BB6  1303               	bcf	3,6	;RP1=0, select bank0
  1860     0BB7  00A0               	movwf	clcd_print@str
  1861     0BB8  3090               	movlw	high (STR_5| (0+32768))
  1862     0BB9  00A1               	movwf	clcd_print@str+1
  1863     0BBA  30C0               	movlw	192
  1864     0BBB  00A2               	movwf	clcd_print@addr
  1865     0BBC  160A  118A  2532  120A  158A  	fcall	_clcd_print
  1866     0BC1                     l4229:
  1867                           
  1868                           ;../../Internship Project/Emertxe project/Washing_Machine.X/main.c: 68:                 
      +                          washing_program_display(key);
  1869     0BC1  3017               	movlw	low (STR_6| (0+32768))
  1870     0BC2  1283               	bcf	3,5	;RP0=0, select bank0
  1871     0BC3  1303               	bcf	3,6	;RP1=0, select bank0
  1872     0BC4  00A0               	movwf	clcd_print@str
  1873     0BC5  3091               	movlw	high (STR_6| (0+32768))
  1874     0BC6  00A1               	movwf	clcd_print@str+1
  1875     0BC7  3090               	movlw	144
  1876     0BC8  00A2               	movwf	clcd_print@addr
  1877     0BC9  160A  118A  2532  120A  158A  	fcall	_clcd_print
  1878     0BCE                     l4231:
  1879                           
  1880                           ;../../Internship Project/Emertxe project/Washing_Machine.X/main.c: 69:                 
      +                          break;
  1881     0BCE  120A  158A  243C  120A  158A  	fcall	_set_time
  1882     0BD3  2B81               	goto	l4215
  1883     0BD4                     l4235:
  1884     0BD4  302F               	movlw	47
  1885     0BD5  1683               	bsf	3,5	;RP0=1, select bank1
  1886     0BD6  1303               	bcf	3,6	;RP1=0, select bank1
  1887     0BD7  0649               	xorwf	main@key^(0+128),w
  1888     0BD8  1D03               	btfss	3,2
  1889     0BD9  2BDB               	goto	u5581
  1890     0BDA  2BDC               	goto	u5580
  1891     0BDB                     u5581:
  1892     0BDB  2BE9               	goto	l56
  1893     0BDC                     u5580:
  1894     0BDC                     l4237:
  1895     0BDC  3044               	movlw	68
  1896     0BDD  1283               	bcf	3,5	;RP0=0, select bank0
  1897     0BDE  1303               	bcf	3,6	;RP1=0, select bank0
  1898     0BDF  066F               	xorwf	_operational_mode,w
  1899     0BE0  1D03               	btfss	3,2
  1900     0BE1  2BE3               	goto	u5591
  1901     0BE2  2BE4               	goto	u5590
  1902     0BE3                     u5591:
  1903     0BE3  2BE9               	goto	l56
  1904     0BE4                     u5590:
  1905     0BE4                     l4239:
  1906                           
  1907                           ;../../Internship Project/Emertxe project/Washing_Machine.X/main.c: 73:                 
      +                          break;
  1908     0BE4  3004               	movlw	4
  1909     0BE5  00EF               	movwf	_operational_mode
  1910                           
  1911                           ;../../Internship Project/Emertxe project/Washing_Machine.X/main.c: 74:             case
      +                           0x03:
  1912     0BE6  1512               	bsf	18,2	;volatile
  1913                           
  1914                           ;../../Internship Project/Emertxe project/Washing_Machine.X/main.c: 75:             {
  1915     0BE7  1507               	bsf	7,2	;volatile
  1916     0BE8  2C28               	goto	l4259
  1917     0BE9                     l56:
  1918                           
  1919                           ;../../Internship Project/Emertxe project/Washing_Machine.X/main.c: 77: 
  1920     0BE9  2C28               	goto	l4259
  1921     0BEA                     l4241:
  1922                           
  1923                           ;../../Internship Project/Emertxe project/Washing_Machine.X/main.c: 80:                 
      +                              reset_flag = 0x33;
  1924     0BEA  1683               	bsf	3,5	;RP0=1, select bank1
  1925     0BEB  1303               	bcf	3,6	;RP1=0, select bank1
  1926     0BEC  0849               	movf	main@key^(0+128),w
  1927     0BED  120A  158A  21F4  120A  158A  	fcall	_washing_program_display
  1928                           
  1929                           ;../../Internship Project/Emertxe project/Washing_Machine.X/main.c: 81: 
  1930     0BF2  2B5B               	goto	l4205
  1931     0BF3                     l4243:
  1932                           
  1933                           ;../../Internship Project/Emertxe project/Washing_Machine.X/main.c: 84:                 
      +                              reset_flag = 0x11;
  1934     0BF3  1683               	bsf	3,5	;RP0=1, select bank1
  1935     0BF4  1303               	bcf	3,6	;RP1=0, select bank1
  1936     0BF5  0849               	movf	main@key^(0+128),w
  1937     0BF6  120A  158A  214B  120A  158A  	fcall	_water_level_screen
  1938                           
  1939                           ;../../Internship Project/Emertxe project/Washing_Machine.X/main.c: 85:                 
      +                          }
  1940     0BFB  2B5B               	goto	l4205
  1941     0BFC                     l4245:
  1942                           
  1943                           ;../../Internship Project/Emertxe project/Washing_Machine.X/main.c: 87:             };..
      +                          /../Internship Project/Emertxe project/Washing_Machine.X/main.c: 88:             case 0x
      +                          04:
  1944     0BFC  3001               	movlw	1
  1945     0BFD  160A  118A  2723  120A  158A  	fcall	_read_digital_keypad
  1946     0C02  1683               	bsf	3,5	;RP0=1, select bank1
  1947     0C03  1303               	bcf	3,6	;RP1=0, select bank1
  1948     0C04  00C9               	movwf	main@key^(0+128)
  1949     0C05                     l4247:
  1950                           
  1951                           ;../../Internship Project/Emertxe project/Washing_Machine.X/main.c: 90:                 
      +                          break;
  1952     0C05  302F               	movlw	47
  1953     0C06  0649               	xorwf	main@key^(0+128),w
  1954     0C07  1D03               	btfss	3,2
  1955     0C08  2C0A               	goto	u5601
  1956     0C09  2C0B               	goto	u5600
  1957     0C0A                     u5601:
  1958     0C0A  2C12               	goto	l4251
  1959     0C0B                     u5600:
  1960     0C0B                     l4249:
  1961                           
  1962                           ;../../Internship Project/Emertxe project/Washing_Machine.X/main.c: 91: 
  1963     0C0B  3004               	movlw	4
  1964     0C0C  1283               	bcf	3,5	;RP0=0, select bank0
  1965     0C0D  1303               	bcf	3,6	;RP1=0, select bank0
  1966     0C0E  00EF               	movwf	_operational_mode
  1967                           
  1968                           ;../../Internship Project/Emertxe project/Washing_Machine.X/main.c: 92:         }
  1969     0C0F  3033               	movlw	51
  1970     0C10  00EE               	movwf	_reset_flag
  1971                           
  1972                           ;../../Internship Project/Emertxe project/Washing_Machine.X/main.c: 94: 
  1973     0C11  2B5B               	goto	l4205
  1974     0C12                     l4251:
  1975     0C12  301F               	movlw	31
  1976     0C13  0649               	xorwf	main@key^(0+128),w
  1977     0C14  1D03               	btfss	3,2
  1978     0C15  2C17               	goto	u5611
  1979     0C16  2C18               	goto	u5610
  1980     0C17                     u5611:
  1981     0C17  2C38               	goto	l62
  1982     0C18                     u5610:
  1983     0C18                     l4253:
  1984                           
  1985                           ;../../Internship Project/Emertxe project/Washing_Machine.X/main.c: 95:     return;
  1986     0C18  3001               	movlw	1
  1987     0C19  1283               	bcf	3,5	;RP0=0, select bank0
  1988     0C1A  1303               	bcf	3,6	;RP1=0, select bank0
  1989     0C1B  00EF               	movwf	_operational_mode
  1990                           
  1991                           ;../../Internship Project/Emertxe project/Washing_Machine.X/main.c: 96: }
  1992     0C1C  3011               	movlw	17
  1993     0C1D  00EE               	movwf	_reset_flag
  1994     0C1E  2B5B               	goto	l4205
  1995     0C1F                     l4255:
  1996     0C1F  1683               	bsf	3,5	;RP0=1, select bank1
  1997     0C20  1303               	bcf	3,6	;RP1=0, select bank1
  1998     0C21  0849               	movf	main@key^(0+128),w
  1999     0C22  120A  118A  204B  120A  158A  	fcall	_run_program
  2000     0C27  2B5B               	goto	l4205
  2001     0C28                     l4259:
  2002     0C28  1283               	bcf	3,5	;RP0=0, select bank0
  2003     0C29  1303               	bcf	3,6	;RP1=0, select bank0
  2004     0C2A  086F               	movf	_operational_mode,w
  2005                           
  2006                           ; Switch size 1, requested type "simple"
  2007                           ; Number of cases is 4, Range of values is 1 to 4
  2008                           ; switch strategies available:
  2009                           ; Name         Instructions Cycles
  2010                           ; simple_byte           13     7 (average)
  2011                           ; direct_byte           23    11 (fixed)
  2012                           ; jumptable            263     9 (fixed)
  2013                           ;	Chosen strategy is simple_byte
  2014     0C2B  3A01               	xorlw	1	; case 1
  2015     0C2C  1903               	skipnz
  2016     0C2D  2BEA               	goto	l4241
  2017     0C2E  3A03               	xorlw	3	; case 2
  2018     0C2F  1903               	skipnz
  2019     0C30  2BF3               	goto	l4243
  2020     0C31  3A01               	xorlw	1	; case 3
  2021     0C32  1903               	skipnz
  2022     0C33  2BFC               	goto	l4245
  2023     0C34  3A07               	xorlw	7	; case 4
  2024     0C35  1903               	skipnz
  2025     0C36  2C1F               	goto	l4255
  2026     0C37  2B5B               	goto	l4205
  2027     0C38                     l62:
  2028     0C38  2B5B               	goto	l4205
  2029     0C39  120A  118A  280C   	ljmp	start
  2030     0C3C                     __end_of_main:
  2031                           
  2032                           	psect	text1
  2033     094B                     __ptext1:	
  2034 ;; *************** function _water_level_screen *****************
  2035 ;; Defined at:
  2036 ;;		line 64 in file "../../../../Downloads/Project/Emertxe project/Washing_Machine.X/washiing_machine_function_def.c"
  2037 ;; Parameters:    Size  Location     Type
  2038 ;;  key             1    wreg     unsigned char 
  2039 ;; Auto vars:     Size  Location     Type
  2040 ;;  key             1    8[BANK0 ] unsigned char 
  2041 ;; Return value:  Size  Location     Type
  2042 ;;                  1    wreg      void 
  2043 ;; Registers used:
  2044 ;;		wreg, fsr0l, fsr0h, status,2, status,0, btemp+1, pclath, cstack
  2045 ;; Tracked objects:
  2046 ;;		On entry : 0/0
  2047 ;;		On exit  : 0/0
  2048 ;;		Unchanged: 0/0
  2049 ;; Data sizes:     COMMON   BANK0   BANK1   BANK3   BANK2
  2050 ;;      Params:         0       0       0       0       0
  2051 ;;      Locals:         0       1       0       0       0
  2052 ;;      Temps:          0       3       0       0       0
  2053 ;;      Totals:         0       4       0       0       0
  2054 ;;Total ram usage:        4 bytes
  2055 ;; Hardware stack levels used: 1
  2056 ;; Hardware stack levels required when called: 3
  2057 ;; This function calls:
  2058 ;;		___awmod
  2059 ;;		_clcd_print
  2060 ;;		_clcd_putch
  2061 ;;		_clear_screen
  2062 ;; This function is called by:
  2063 ;;		_main
  2064 ;; This function uses a non-reentrant model
  2065 ;;
  2066                           
  2067     094B                     _water_level_screen:	
  2068                           ;psect for function _water_level_screen
  2069                           
  2070                           
  2071                           ;incstack = 0
  2072                           ; Regs used in _water_level_screen: [wreg-fsr0h+status,2+status,0+btemp+1+pclath+cstack]
  2073                           ;water_level_screen@key stored from wreg
  2074     094B  1283               	bcf	3,5	;RP0=0, select bank0
  2075     094C  1303               	bcf	3,6	;RP1=0, select bank0
  2076     094D  00A8               	movwf	water_level_screen@key
  2077     094E                     l3813:
  2078                           
  2079                           ;../../../../Downloads/Project/Emertxe project/Washing_Machine.X/washiing_machine_functi
      +                          on_def.c: 65:     if (reset_flag == 0x22) {
  2080     094E  3022               	movlw	34
  2081     094F  066E               	xorwf	_reset_flag,w
  2082     0950  1D03               	btfss	3,2
  2083     0951  2953               	goto	u5111
  2084     0952  2954               	goto	u5110
  2085     0953                     u5111:
  2086     0953  295D               	goto	l3819
  2087     0954                     u5110:
  2088     0954                     l3815:
  2089                           
  2090                           ;../../../../Downloads/Project/Emertxe project/Washing_Machine.X/washiing_machine_functi
      +                          on_def.c: 66:         clear_screen();
  2091     0954  160A  118A  2454  120A  158A  	fcall	_clear_screen
  2092     0959                     l3817:
  2093                           
  2094                           ;../../../../Downloads/Project/Emertxe project/Washing_Machine.X/washiing_machine_functi
      +                          on_def.c: 67:         reset_flag = 0xFF;
  2095     0959  30FF               	movlw	255
  2096     095A  1283               	bcf	3,5	;RP0=0, select bank0
  2097     095B  1303               	bcf	3,6	;RP1=0, select bank0
  2098     095C  00EE               	movwf	_reset_flag
  2099     095D                     l3819:
  2100                           
  2101                           ;../../../../Downloads/Project/Emertxe project/Washing_Machine.X/washiing_machine_functi
      +                          on_def.c: 69:     if (key == 0x37) {
  2102     095D  3037               	movlw	55
  2103     095E  0628               	xorwf	water_level_screen@key,w
  2104     095F  1D03               	btfss	3,2
  2105     0960  2962               	goto	u5121
  2106     0961  2963               	goto	u5120
  2107     0962                     u5121:
  2108     0962  297F               	goto	l3831
  2109     0963                     u5120:
  2110     0963                     l3821:
  2111                           
  2112                           ;../../../../Downloads/Project/Emertxe project/Washing_Machine.X/washiing_machine_functi
      +                          on_def.c: 70:         clear_screen();
  2113     0963  160A  118A  2454  120A  158A  	fcall	_clear_screen
  2114     0968                     l3823:
  2115                           
  2116                           ;../../../../Downloads/Project/Emertxe project/Washing_Machine.X/washiing_machine_functi
      +                          on_def.c: 71:         level++;
  2117     0968  3001               	movlw	1
  2118     0969  07F9               	addwf	_level,f
  2119     096A                     l3825:
  2120                           
  2121                           ;../../../../Downloads/Project/Emertxe project/Washing_Machine.X/washiing_machine_functi
      +                          on_def.c: 72:         if (level == 5) {
  2122     096A  3005               	movlw	5
  2123     096B  0679               	xorwf	_level,w
  2124     096C  1D03               	btfss	3,2
  2125     096D  296F               	goto	u5131
  2126     096E  2970               	goto	u5130
  2127     096F                     u5131:
  2128     096F  2971               	goto	l3829
  2129     0970                     u5130:
  2130     0970                     l3827:
  2131                           
  2132                           ;../../../../Downloads/Project/Emertxe project/Washing_Machine.X/washiing_machine_functi
      +                          on_def.c: 73:             level = 0;
  2133     0970  01F9               	clrf	_level
  2134     0971                     l3829:
  2135                           
  2136                           ;../../../../Downloads/Project/Emertxe project/Washing_Machine.X/washiing_machine_functi
      +                          on_def.c: 75:            _delay((unsigned long)((150)*(20000000/4000.0)));
  2137     0971  3004               	movlw	4
  2138     0972  1283               	bcf	3,5	;RP0=0, select bank0
  2139     0973  1303               	bcf	3,6	;RP1=0, select bank0
  2140     0974  00A7               	movwf	??_water_level_screen+2
  2141     0975  30CF               	movlw	207
  2142     0976  00A6               	movwf	??_water_level_screen+1
  2143     0977  3001               	movlw	1
  2144     0978  00A5               	movwf	??_water_level_screen
  2145     0979                     u5657:
  2146     0979  0BA5               	decfsz	??_water_level_screen,f
  2147     097A  2979               	goto	u5657
  2148     097B  0BA6               	decfsz	??_water_level_screen+1,f
  2149     097C  2979               	goto	u5657
  2150     097D  0BA7               	decfsz	??_water_level_screen+2,f
  2151     097E  2979               	goto	u5657
  2152     097F                     l3831:
  2153                           
  2154                           ;../../../../Downloads/Project/Emertxe project/Washing_Machine.X/washiing_machine_functi
      +                          on_def.c: 77:     clcd_print("WATER_LEVEL:", (0x80 + 0));
  2155     097F  3091               	movlw	low (STR_27| (0+32768))
  2156     0980  1283               	bcf	3,5	;RP0=0, select bank0
  2157     0981  1303               	bcf	3,6	;RP1=0, select bank0
  2158     0982  00A0               	movwf	clcd_print@str
  2159     0983  3090               	movlw	high (STR_27| (0+32768))
  2160     0984  00A1               	movwf	clcd_print@str+1
  2161     0985  3080               	movlw	128
  2162     0986  00A2               	movwf	clcd_print@addr
  2163     0987  160A  118A  2532  120A  158A  	fcall	_clcd_print
  2164     098C                     l3833:
  2165                           
  2166                           ;../../../../Downloads/Project/Emertxe project/Washing_Machine.X/washiing_machine_functi
      +                          on_def.c: 78:     clcd_putch('*', (0xC0 + 0));
  2167     098C  30C0               	movlw	192
  2168     098D  00F8               	movwf	clcd_putch@addr
  2169     098E  302A               	movlw	42
  2170     098F  160A  118A  2478  120A  158A  	fcall	_clcd_putch
  2171     0994                     l3835:
  2172                           
  2173                           ;../../../../Downloads/Project/Emertxe project/Washing_Machine.X/washiing_machine_functi
      +                          on_def.c: 79:     clcd_print(water_level[level], (0xC0 + 2));
  2174     0994  0879               	movf	_level,w
  2175     0995  1283               	bcf	3,5	;RP0=0, select bank0
  2176     0996  1303               	bcf	3,6	;RP1=0, select bank0
  2177     0997  00A5               	movwf	??_water_level_screen
  2178     0998  0725               	addwf	??_water_level_screen,w
  2179     0999  3EB8               	addlw	(low (_water_level| 0))& (0+255)
  2180     099A  0084               	movwf	4
  2181     099B  1383               	bcf	3,7	;select IRP bank1
  2182     099C  0800               	movf	0,w
  2183     099D  00A0               	movwf	clcd_print@str
  2184     099E  0A84               	incf	4,f
  2185     099F  0800               	movf	0,w
  2186     09A0  0384               	decf	4,f
  2187     09A1  00A1               	movwf	clcd_print@str+1
  2188     09A2  30C2               	movlw	194
  2189     09A3  00A2               	movwf	clcd_print@addr
  2190     09A4  160A  118A  2532  120A  158A  	fcall	_clcd_print
  2191     09A9                     l3837:
  2192                           
  2193                           ;../../../../Downloads/Project/Emertxe project/Washing_Machine.X/washiing_machine_functi
      +                          on_def.c: 80:     clcd_print(water_level[(level + 1) % 5], (0x90 + 2));
  2194     09A9  3005               	movlw	5
  2195     09AA  00F2               	movwf	___awmod@divisor
  2196     09AB  3000               	movlw	0
  2197     09AC  00F3               	movwf	___awmod@divisor+1
  2198     09AD  0879               	movf	_level,w
  2199     09AE  3E01               	addlw	1
  2200     09AF  00F4               	movwf	___awmod@dividend
  2201     09B0  3000               	movlw	0
  2202     09B1  1803               	skipnc
  2203     09B2  3001               	movlw	1
  2204     09B3  00F5               	movwf	___awmod@dividend+1
  2205     09B4  160A  118A  2609  120A  158A  	fcall	___awmod
  2206     09B9  0872               	movf	?___awmod,w
  2207     09BA  1283               	bcf	3,5	;RP0=0, select bank0
  2208     09BB  1303               	bcf	3,6	;RP1=0, select bank0
  2209     09BC  00A5               	movwf	??_water_level_screen
  2210     09BD  0725               	addwf	??_water_level_screen,w
  2211     09BE  3EB8               	addlw	(low (_water_level| 0))& (0+255)
  2212     09BF  0084               	movwf	4
  2213     09C0  1383               	bcf	3,7	;select IRP bank1
  2214     09C1  0800               	movf	0,w
  2215     09C2  00A0               	movwf	clcd_print@str
  2216     09C3  0A84               	incf	4,f
  2217     09C4  0800               	movf	0,w
  2218     09C5  0384               	decf	4,f
  2219     09C6  00A1               	movwf	clcd_print@str+1
  2220     09C7  3092               	movlw	146
  2221     09C8  00A2               	movwf	clcd_print@addr
  2222     09C9  160A  118A  2532  120A  158A  	fcall	_clcd_print
  2223     09CE                     l3839:
  2224                           
  2225                           ;../../../../Downloads/Project/Emertxe project/Washing_Machine.X/washiing_machine_functi
      +                          on_def.c: 81:     clcd_print(water_level[(level + 2) % 5], (0xD0 + 2));
  2226     09CE  3005               	movlw	5
  2227     09CF  00F2               	movwf	___awmod@divisor
  2228     09D0  3000               	movlw	0
  2229     09D1  00F3               	movwf	___awmod@divisor+1
  2230     09D2  0879               	movf	_level,w
  2231     09D3  3E02               	addlw	2
  2232     09D4  00F4               	movwf	___awmod@dividend
  2233     09D5  3000               	movlw	0
  2234     09D6  1803               	skipnc
  2235     09D7  3001               	movlw	1
  2236     09D8  00F5               	movwf	___awmod@dividend+1
  2237     09D9  160A  118A  2609  120A  158A  	fcall	___awmod
  2238     09DE  0872               	movf	?___awmod,w
  2239     09DF  1283               	bcf	3,5	;RP0=0, select bank0
  2240     09E0  1303               	bcf	3,6	;RP1=0, select bank0
  2241     09E1  00A5               	movwf	??_water_level_screen
  2242     09E2  0725               	addwf	??_water_level_screen,w
  2243     09E3  3EB8               	addlw	(low (_water_level| 0))& (0+255)
  2244     09E4  0084               	movwf	4
  2245     09E5  1383               	bcf	3,7	;select IRP bank1
  2246     09E6  0800               	movf	0,w
  2247     09E7  00A0               	movwf	clcd_print@str
  2248     09E8  0A84               	incf	4,f
  2249     09E9  0800               	movf	0,w
  2250     09EA  0384               	decf	4,f
  2251     09EB  00A1               	movwf	clcd_print@str+1
  2252     09EC  30D2               	movlw	210
  2253     09ED  00A2               	movwf	clcd_print@addr
  2254     09EE  160A  118A  2532  120A  158A  	fcall	_clcd_print
  2255     09F3                     l224:
  2256     09F3  0008               	return
  2257     09F4                     __end_of_water_level_screen:
  2258                           
  2259                           	psect	text2
  2260     09F4                     __ptext2:	
  2261 ;; *************** function _washing_program_display *****************
  2262 ;; Defined at:
  2263 ;;		line 30 in file "../../../../Downloads/Project/Emertxe project/Washing_Machine.X/washiing_machine_function_def.c"
  2264 ;; Parameters:    Size  Location     Type
  2265 ;;  key             1    wreg     unsigned char 
  2266 ;; Auto vars:     Size  Location     Type
  2267 ;;  key             1    8[BANK0 ] unsigned char 
  2268 ;; Return value:  Size  Location     Type
  2269 ;;                  1    wreg      void 
  2270 ;; Registers used:
  2271 ;;		wreg, fsr0l, fsr0h, status,2, status,0, btemp+1, pclath, cstack
  2272 ;; Tracked objects:
  2273 ;;		On entry : 0/0
  2274 ;;		On exit  : 0/0
  2275 ;;		Unchanged: 0/0
  2276 ;; Data sizes:     COMMON   BANK0   BANK1   BANK3   BANK2
  2277 ;;      Params:         0       0       0       0       0
  2278 ;;      Locals:         0       1       0       0       0
  2279 ;;      Temps:          0       3       0       0       0
  2280 ;;      Totals:         0       4       0       0       0
  2281 ;;Total ram usage:        4 bytes
  2282 ;; Hardware stack levels used: 1
  2283 ;; Hardware stack levels required when called: 3
  2284 ;; This function calls:
  2285 ;;		_clcd_print
  2286 ;;		_clcd_putch
  2287 ;;		_clear_screen
  2288 ;; This function is called by:
  2289 ;;		_main
  2290 ;; This function uses a non-reentrant model
  2291 ;;
  2292                           
  2293     09F4                     _washing_program_display:	
  2294                           ;psect for function _washing_program_display
  2295                           
  2296                           
  2297                           ;incstack = 0
  2298                           ; Regs used in _washing_program_display: [wreg-fsr0h+status,2+status,0+btemp+1+pclath+cs
      +                          tack]
  2299                           ;washing_program_display@key stored from wreg
  2300     09F4  1283               	bcf	3,5	;RP0=0, select bank0
  2301     09F5  1303               	bcf	3,6	;RP1=0, select bank0
  2302     09F6  00A8               	movwf	washing_program_display@key
  2303     09F7                     l3779:
  2304                           
  2305                           ;../../../../Downloads/Project/Emertxe project/Washing_Machine.X/washiing_machine_functi
      +                          on_def.c: 32:     if (reset_flag == 0x11) {
  2306     09F7  3011               	movlw	17
  2307     09F8  066E               	xorwf	_reset_flag,w
  2308     09F9  1D03               	btfss	3,2
  2309     09FA  29FC               	goto	u5051
  2310     09FB  29FD               	goto	u5050
  2311     09FC                     u5051:
  2312     09FC  2A06               	goto	l3785
  2313     09FD                     u5050:
  2314     09FD                     l3781:
  2315                           
  2316                           ;../../../../Downloads/Project/Emertxe project/Washing_Machine.X/washiing_machine_functi
      +                          on_def.c: 33:         clear_screen();
  2317     09FD  160A  118A  2454  120A  158A  	fcall	_clear_screen
  2318     0A02                     l3783:
  2319                           
  2320                           ;../../../../Downloads/Project/Emertxe project/Washing_Machine.X/washiing_machine_functi
      +                          on_def.c: 34:         reset_flag = 0xFF;
  2321     0A02  30FF               	movlw	255
  2322     0A03  1283               	bcf	3,5	;RP0=0, select bank0
  2323     0A04  1303               	bcf	3,6	;RP1=0, select bank0
  2324     0A05  00EE               	movwf	_reset_flag
  2325     0A06                     l3785:
  2326                           
  2327                           ;../../../../Downloads/Project/Emertxe project/Washing_Machine.X/washiing_machine_functi
      +                          on_def.c: 36:     if (key == 0x37) {
  2328     0A06  3037               	movlw	55
  2329     0A07  0628               	xorwf	washing_program_display@key,w
  2330     0A08  1D03               	btfss	3,2
  2331     0A09  2A0B               	goto	u5061
  2332     0A0A  2A0C               	goto	u5060
  2333     0A0B                     u5061:
  2334     0A0B  2A28               	goto	l3797
  2335     0A0C                     u5060:
  2336     0A0C                     l3787:
  2337                           
  2338                           ;../../../../Downloads/Project/Emertxe project/Washing_Machine.X/washiing_machine_functi
      +                          on_def.c: 37:         clear_screen();
  2339     0A0C  160A  118A  2454  120A  158A  	fcall	_clear_screen
  2340     0A11                     l3789:
  2341                           
  2342                           ;../../../../Downloads/Project/Emertxe project/Washing_Machine.X/washiing_machine_functi
      +                          on_def.c: 38:         program_no++;
  2343     0A11  3001               	movlw	1
  2344     0A12  07FA               	addwf	_program_no,f
  2345     0A13                     l3791:
  2346                           
  2347                           ;../../../../Downloads/Project/Emertxe project/Washing_Machine.X/washiing_machine_functi
      +                          on_def.c: 39:         if (program_no == 12) {
  2348     0A13  300C               	movlw	12
  2349     0A14  067A               	xorwf	_program_no,w
  2350     0A15  1D03               	btfss	3,2
  2351     0A16  2A18               	goto	u5071
  2352     0A17  2A19               	goto	u5070
  2353     0A18                     u5071:
  2354     0A18  2A1A               	goto	l3795
  2355     0A19                     u5070:
  2356     0A19                     l3793:
  2357                           
  2358                           ;../../../../Downloads/Project/Emertxe project/Washing_Machine.X/washiing_machine_functi
      +                          on_def.c: 40:             program_no = 0;
  2359     0A19  01FA               	clrf	_program_no
  2360     0A1A                     l3795:
  2361                           
  2362                           ;../../../../Downloads/Project/Emertxe project/Washing_Machine.X/washiing_machine_functi
      +                          on_def.c: 42:            _delay((unsigned long)((150)*(20000000/4000.0)));
  2363     0A1A  3004               	movlw	4
  2364     0A1B  1283               	bcf	3,5	;RP0=0, select bank0
  2365     0A1C  1303               	bcf	3,6	;RP1=0, select bank0
  2366     0A1D  00A7               	movwf	??_washing_program_display+2
  2367     0A1E  30CF               	movlw	207
  2368     0A1F  00A6               	movwf	??_washing_program_display+1
  2369     0A20  3001               	movlw	1
  2370     0A21  00A5               	movwf	??_washing_program_display
  2371     0A22                     u5667:
  2372     0A22  0BA5               	decfsz	??_washing_program_display,f
  2373     0A23  2A22               	goto	u5667
  2374     0A24  0BA6               	decfsz	??_washing_program_display+1,f
  2375     0A25  2A22               	goto	u5667
  2376     0A26  0BA7               	decfsz	??_washing_program_display+2,f
  2377     0A27  2A22               	goto	u5667
  2378     0A28                     l3797:
  2379                           
  2380                           ;../../../../Downloads/Project/Emertxe project/Washing_Machine.X/washiing_machine_functi
      +                          on_def.c: 44:     clcd_print("WASHING PROGRAM ", (0x80 + 0));
  2381     0A28  3035               	movlw	low (STR_21| (0+32768))
  2382     0A29  1283               	bcf	3,5	;RP0=0, select bank0
  2383     0A2A  1303               	bcf	3,6	;RP1=0, select bank0
  2384     0A2B  00A0               	movwf	clcd_print@str
  2385     0A2C  3090               	movlw	high (STR_21| (0+32768))
  2386     0A2D  00A1               	movwf	clcd_print@str+1
  2387     0A2E  3080               	movlw	128
  2388     0A2F  00A2               	movwf	clcd_print@addr
  2389     0A30  160A  118A  2532  120A  158A  	fcall	_clcd_print
  2390     0A35                     l3799:
  2391                           
  2392                           ;../../../../Downloads/Project/Emertxe project/Washing_Machine.X/washiing_machine_functi
      +                          on_def.c: 45:     clcd_putch('*', (0xC0 + 0));
  2393     0A35  30C0               	movlw	192
  2394     0A36  00F8               	movwf	clcd_putch@addr
  2395     0A37  302A               	movlw	42
  2396     0A38  160A  118A  2478  120A  158A  	fcall	_clcd_putch
  2397     0A3D                     l3801:
  2398                           
  2399                           ;../../../../Downloads/Project/Emertxe project/Washing_Machine.X/washiing_machine_functi
      +                          on_def.c: 46:     if (program_no <= 9) {
  2400     0A3D  300A               	movlw	10
  2401     0A3E  027A               	subwf	_program_no,w
  2402     0A3F  1803               	skipnc
  2403     0A40  2A42               	goto	u5081
  2404     0A41  2A43               	goto	u5080
  2405     0A42                     u5081:
  2406     0A42  2A83               	goto	l3805
  2407     0A43                     u5080:
  2408     0A43                     l3803:
  2409                           
  2410                           ;../../../../Downloads/Project/Emertxe project/Washing_Machine.X/washiing_machine_functi
      +                          on_def.c: 47:         clcd_print(washing_program[program_no], (0xC0 + 1));
  2411     0A43  087A               	movf	_program_no,w
  2412     0A44  1283               	bcf	3,5	;RP0=0, select bank0
  2413     0A45  1303               	bcf	3,6	;RP1=0, select bank0
  2414     0A46  00A5               	movwf	??_washing_program_display
  2415     0A47  0725               	addwf	??_washing_program_display,w
  2416     0A48  3EA0               	addlw	(low (_washing_program| 0))& (0+255)
  2417     0A49  0084               	movwf	4
  2418     0A4A  1383               	bcf	3,7	;select IRP bank1
  2419     0A4B  0800               	movf	0,w
  2420     0A4C  00A0               	movwf	clcd_print@str
  2421     0A4D  0A84               	incf	4,f
  2422     0A4E  0800               	movf	0,w
  2423     0A4F  0384               	decf	4,f
  2424     0A50  00A1               	movwf	clcd_print@str+1
  2425     0A51  30C1               	movlw	193
  2426     0A52  00A2               	movwf	clcd_print@addr
  2427     0A53  160A  118A  2532  120A  158A  	fcall	_clcd_print
  2428                           
  2429                           ;../../../../Downloads/Project/Emertxe project/Washing_Machine.X/washiing_machine_functi
      +                          on_def.c: 48:         clcd_print(washing_program[program_no + 1], (0x90 + 1));
  2430     0A58  087A               	movf	_program_no,w
  2431     0A59  1283               	bcf	3,5	;RP0=0, select bank0
  2432     0A5A  1303               	bcf	3,6	;RP1=0, select bank0
  2433     0A5B  00A5               	movwf	??_washing_program_display
  2434     0A5C  0725               	addwf	??_washing_program_display,w
  2435     0A5D  3EA2               	addlw	(low ((_washing_program| 0+2)))& (0+255)
  2436     0A5E  0084               	movwf	4
  2437     0A5F  1383               	bcf	3,7	;select IRP bank1
  2438     0A60  0800               	movf	0,w
  2439     0A61  00A0               	movwf	clcd_print@str
  2440     0A62  0A84               	incf	4,f
  2441     0A63  0800               	movf	0,w
  2442     0A64  0384               	decf	4,f
  2443     0A65  00A1               	movwf	clcd_print@str+1
  2444     0A66  3091               	movlw	145
  2445     0A67  00A2               	movwf	clcd_print@addr
  2446     0A68  160A  118A  2532  120A  158A  	fcall	_clcd_print
  2447                           
  2448                           ;../../../../Downloads/Project/Emertxe project/Washing_Machine.X/washiing_machine_functi
      +                          on_def.c: 49:         clcd_print(washing_program[program_no + 2], (0xD0 + 1));
  2449     0A6D  087A               	movf	_program_no,w
  2450     0A6E  1283               	bcf	3,5	;RP0=0, select bank0
  2451     0A6F  1303               	bcf	3,6	;RP1=0, select bank0
  2452     0A70  00A5               	movwf	??_washing_program_display
  2453     0A71  0725               	addwf	??_washing_program_display,w
  2454     0A72  3EA4               	addlw	(low ((_washing_program| 0+4)))& (0+255)
  2455     0A73  0084               	movwf	4
  2456     0A74  1383               	bcf	3,7	;select IRP bank1
  2457     0A75  0800               	movf	0,w
  2458     0A76  00A0               	movwf	clcd_print@str
  2459     0A77  0A84               	incf	4,f
  2460     0A78  0800               	movf	0,w
  2461     0A79  0384               	decf	4,f
  2462     0A7A  00A1               	movwf	clcd_print@str+1
  2463     0A7B  30D1               	movlw	209
  2464     0A7C  00A2               	movwf	clcd_print@addr
  2465     0A7D  160A  118A  2532  120A  158A  	fcall	_clcd_print
  2466                           
  2467                           ;../../../../Downloads/Project/Emertxe project/Washing_Machine.X/washiing_machine_functi
      +                          on_def.c: 50:     } else if (program_no == 10) {
  2468     0A82  2B08               	goto	l214
  2469     0A83                     l3805:
  2470     0A83  300A               	movlw	10
  2471     0A84  067A               	xorwf	_program_no,w
  2472     0A85  1D03               	btfss	3,2
  2473     0A86  2A88               	goto	u5091
  2474     0A87  2A89               	goto	u5090
  2475     0A88                     u5091:
  2476     0A88  2AC7               	goto	l3809
  2477     0A89                     u5090:
  2478     0A89                     l3807:
  2479                           
  2480                           ;../../../../Downloads/Project/Emertxe project/Washing_Machine.X/washiing_machine_functi
      +                          on_def.c: 51:         clcd_print(washing_program[program_no], (0xC0 + 1));
  2481     0A89  087A               	movf	_program_no,w
  2482     0A8A  1283               	bcf	3,5	;RP0=0, select bank0
  2483     0A8B  1303               	bcf	3,6	;RP1=0, select bank0
  2484     0A8C  00A5               	movwf	??_washing_program_display
  2485     0A8D  0725               	addwf	??_washing_program_display,w
  2486     0A8E  3EA0               	addlw	(low (_washing_program| 0))& (0+255)
  2487     0A8F  0084               	movwf	4
  2488     0A90  1383               	bcf	3,7	;select IRP bank1
  2489     0A91  0800               	movf	0,w
  2490     0A92  00A0               	movwf	clcd_print@str
  2491     0A93  0A84               	incf	4,f
  2492     0A94  0800               	movf	0,w
  2493     0A95  0384               	decf	4,f
  2494     0A96  00A1               	movwf	clcd_print@str+1
  2495     0A97  30C1               	movlw	193
  2496     0A98  00A2               	movwf	clcd_print@addr
  2497     0A99  160A  118A  2532  120A  158A  	fcall	_clcd_print
  2498                           
  2499                           ;../../../../Downloads/Project/Emertxe project/Washing_Machine.X/washiing_machine_functi
      +                          on_def.c: 52:         clcd_print(washing_program[program_no + 1], (0x90 + 1));
  2500     0A9E  087A               	movf	_program_no,w
  2501     0A9F  1283               	bcf	3,5	;RP0=0, select bank0
  2502     0AA0  1303               	bcf	3,6	;RP1=0, select bank0
  2503     0AA1  00A5               	movwf	??_washing_program_display
  2504     0AA2  0725               	addwf	??_washing_program_display,w
  2505     0AA3  3EA2               	addlw	(low ((_washing_program| 0+2)))& (0+255)
  2506     0AA4  0084               	movwf	4
  2507     0AA5  1383               	bcf	3,7	;select IRP bank1
  2508     0AA6  0800               	movf	0,w
  2509     0AA7  00A0               	movwf	clcd_print@str
  2510     0AA8  0A84               	incf	4,f
  2511     0AA9  0800               	movf	0,w
  2512     0AAA  0384               	decf	4,f
  2513     0AAB  00A1               	movwf	clcd_print@str+1
  2514     0AAC  3091               	movlw	145
  2515     0AAD  00A2               	movwf	clcd_print@addr
  2516     0AAE  160A  118A  2532  120A  158A  	fcall	_clcd_print
  2517                           
  2518                           ;../../../../Downloads/Project/Emertxe project/Washing_Machine.X/washiing_machine_functi
      +                          on_def.c: 53:         clcd_print(washing_program[0], (0xD0 + 1));
  2519     0AB3  1683               	bsf	3,5	;RP0=1, select bank1
  2520     0AB4  1303               	bcf	3,6	;RP1=0, select bank1
  2521     0AB5  0820               	movf	_washing_program^(0+128),w
  2522     0AB6  1283               	bcf	3,5	;RP0=0, select bank0
  2523     0AB7  1303               	bcf	3,6	;RP1=0, select bank0
  2524     0AB8  00A0               	movwf	clcd_print@str
  2525     0AB9  1683               	bsf	3,5	;RP0=1, select bank1
  2526     0ABA  1303               	bcf	3,6	;RP1=0, select bank1
  2527     0ABB  0821               	movf	(_washing_program+1)^(0+128),w
  2528     0ABC  1283               	bcf	3,5	;RP0=0, select bank0
  2529     0ABD  1303               	bcf	3,6	;RP1=0, select bank0
  2530     0ABE  00A1               	movwf	clcd_print@str+1
  2531     0ABF  30D1               	movlw	209
  2532     0AC0  00A2               	movwf	clcd_print@addr
  2533     0AC1  160A  118A  2532  120A  158A  	fcall	_clcd_print
  2534                           
  2535                           ;../../../../Downloads/Project/Emertxe project/Washing_Machine.X/washiing_machine_functi
      +                          on_def.c: 54:     } else if (program_no == 11) {
  2536     0AC6  2B08               	goto	l214
  2537     0AC7                     l3809:
  2538     0AC7  300B               	movlw	11
  2539     0AC8  067A               	xorwf	_program_no,w
  2540     0AC9  1D03               	btfss	3,2
  2541     0ACA  2ACC               	goto	u5101
  2542     0ACB  2ACD               	goto	u5100
  2543     0ACC                     u5101:
  2544     0ACC  2B08               	goto	l214
  2545     0ACD                     u5100:
  2546     0ACD                     l3811:
  2547                           
  2548                           ;../../../../Downloads/Project/Emertxe project/Washing_Machine.X/washiing_machine_functi
      +                          on_def.c: 55:         clcd_print(washing_program[program_no], (0xC0 + 1));
  2549     0ACD  087A               	movf	_program_no,w
  2550     0ACE  1283               	bcf	3,5	;RP0=0, select bank0
  2551     0ACF  1303               	bcf	3,6	;RP1=0, select bank0
  2552     0AD0  00A5               	movwf	??_washing_program_display
  2553     0AD1  0725               	addwf	??_washing_program_display,w
  2554     0AD2  3EA0               	addlw	(low (_washing_program| 0))& (0+255)
  2555     0AD3  0084               	movwf	4
  2556     0AD4  1383               	bcf	3,7	;select IRP bank1
  2557     0AD5  0800               	movf	0,w
  2558     0AD6  00A0               	movwf	clcd_print@str
  2559     0AD7  0A84               	incf	4,f
  2560     0AD8  0800               	movf	0,w
  2561     0AD9  0384               	decf	4,f
  2562     0ADA  00A1               	movwf	clcd_print@str+1
  2563     0ADB  30C1               	movlw	193
  2564     0ADC  00A2               	movwf	clcd_print@addr
  2565     0ADD  160A  118A  2532  120A  158A  	fcall	_clcd_print
  2566                           
  2567                           ;../../../../Downloads/Project/Emertxe project/Washing_Machine.X/washiing_machine_functi
      +                          on_def.c: 56:         clcd_print(washing_program[0], (0x90 + 1));
  2568     0AE2  1683               	bsf	3,5	;RP0=1, select bank1
  2569     0AE3  1303               	bcf	3,6	;RP1=0, select bank1
  2570     0AE4  0820               	movf	_washing_program^(0+128),w
  2571     0AE5  1283               	bcf	3,5	;RP0=0, select bank0
  2572     0AE6  1303               	bcf	3,6	;RP1=0, select bank0
  2573     0AE7  00A0               	movwf	clcd_print@str
  2574     0AE8  1683               	bsf	3,5	;RP0=1, select bank1
  2575     0AE9  1303               	bcf	3,6	;RP1=0, select bank1
  2576     0AEA  0821               	movf	(_washing_program+1)^(0+128),w
  2577     0AEB  1283               	bcf	3,5	;RP0=0, select bank0
  2578     0AEC  1303               	bcf	3,6	;RP1=0, select bank0
  2579     0AED  00A1               	movwf	clcd_print@str+1
  2580     0AEE  3091               	movlw	145
  2581     0AEF  00A2               	movwf	clcd_print@addr
  2582     0AF0  160A  118A  2532  120A  158A  	fcall	_clcd_print
  2583                           
  2584                           ;../../../../Downloads/Project/Emertxe project/Washing_Machine.X/washiing_machine_functi
      +                          on_def.c: 57:         clcd_print(washing_program[1], (0xD0 + 1));
  2585     0AF5  1683               	bsf	3,5	;RP0=1, select bank1
  2586     0AF6  1303               	bcf	3,6	;RP1=0, select bank1
  2587     0AF7  0822               	movf	(low ((_washing_program| 0+2)))^(0+128),w
  2588     0AF8  1283               	bcf	3,5	;RP0=0, select bank0
  2589     0AF9  1303               	bcf	3,6	;RP1=0, select bank0
  2590     0AFA  00A0               	movwf	clcd_print@str
  2591     0AFB  1683               	bsf	3,5	;RP0=1, select bank1
  2592     0AFC  1303               	bcf	3,6	;RP1=0, select bank1
  2593     0AFD  0823               	movf	((low ((_washing_program| 0+2))+1))^(0+128),w
  2594     0AFE  1283               	bcf	3,5	;RP0=0, select bank0
  2595     0AFF  1303               	bcf	3,6	;RP1=0, select bank0
  2596     0B00  00A1               	movwf	clcd_print@str+1
  2597     0B01  30D1               	movlw	209
  2598     0B02  00A2               	movwf	clcd_print@addr
  2599     0B03  160A  118A  2532  120A  158A  	fcall	_clcd_print
  2600     0B08                     l214:
  2601     0B08  0008               	return
  2602     0B09                     __end_of_washing_program_display:
  2603                           
  2604                           	psect	text3
  2605     0C3C                     __ptext3:	
  2606 ;; *************** function _set_time *****************
  2607 ;; Defined at:
  2608 ;;		line 162 in file "../../../../Downloads/Project/Emertxe project/Washing_Machine.X/washiing_machine_function_def.c"
  2609 ;; Parameters:    Size  Location     Type
  2610 ;;		None
  2611 ;; Auto vars:     Size  Location     Type
  2612 ;;		None
  2613 ;; Return value:  Size  Location     Type
  2614 ;;                  1    wreg      void 
  2615 ;; Registers used:
  2616 ;;		wreg, fsr0l, fsr0h, status,2, status,0
  2617 ;; Tracked objects:
  2618 ;;		On entry : 0/0
  2619 ;;		On exit  : 0/0
  2620 ;;		Unchanged: 0/0
  2621 ;; Data sizes:     COMMON   BANK0   BANK1   BANK3   BANK2
  2622 ;;      Params:         0       0       0       0       0
  2623 ;;      Locals:         0       0       0       0       0
  2624 ;;      Temps:          0       0       0       0       0
  2625 ;;      Totals:         0       0       0       0       0
  2626 ;;Total ram usage:        0 bytes
  2627 ;; Hardware stack levels used: 1
  2628 ;; Hardware stack levels required when called: 1
  2629 ;; This function calls:
  2630 ;;		Nothing
  2631 ;; This function is called by:
  2632 ;;		_main
  2633 ;; This function uses a non-reentrant model
  2634 ;;
  2635                           
  2636     0C3C                     _set_time:	
  2637                           ;psect for function _set_time
  2638                           
  2639     0C3C                     l3651:	
  2640                           ;incstack = 0
  2641                           ; Regs used in _set_time: [wreg-fsr0h+status,2+status,0]
  2642                           
  2643                           
  2644                           ;../../../../Downloads/Project/Emertxe project/Washing_Machine.X/washiing_machine_functi
      +                          on_def.c: 163:     switch (program_no) {
  2645     0C3C  2D81               	goto	l3777
  2646     0C3D                     l248:	
  2647                           ;../../../../Downloads/Project/Emertxe project/Washing_Machine.X/washiing_machine_functi
      +                          on_def.c: 166:                 case 1:
  2648                           
  2649                           
  2650                           ;../../../../Downloads/Project/Emertxe project/Washing_Machine.X/washiing_machine_functi
      +                          on_def.c: 167:                     sec = 33;
  2651     0C3D  3021               	movlw	33
  2652     0C3E  1283               	bcf	3,5	;RP0=0, select bank0
  2653     0C3F  1303               	bcf	3,6	;RP1=0, select bank0
  2654     0C40  00EA               	movwf	_sec
  2655                           
  2656                           ;../../../../Downloads/Project/Emertxe project/Washing_Machine.X/washiing_machine_functi
      +                          on_def.c: 168:                     break;
  2657     0C41  2DA7               	goto	l343
  2658     0C42                     l251:	
  2659                           ;../../../../Downloads/Project/Emertxe project/Washing_Machine.X/washiing_machine_functi
      +                          on_def.c: 170:                 case 2:
  2660                           
  2661                           
  2662                           ;../../../../Downloads/Project/Emertxe project/Washing_Machine.X/washiing_machine_functi
      +                          on_def.c: 171:                     sec = 41;
  2663     0C42  3029               	movlw	41
  2664     0C43  1283               	bcf	3,5	;RP0=0, select bank0
  2665     0C44  1303               	bcf	3,6	;RP1=0, select bank0
  2666     0C45  00EA               	movwf	_sec
  2667                           
  2668                           ;../../../../Downloads/Project/Emertxe project/Washing_Machine.X/washiing_machine_functi
      +                          on_def.c: 172:                     break;
  2669     0C46  2DA7               	goto	l343
  2670     0C47                     l253:	
  2671                           ;../../../../Downloads/Project/Emertxe project/Washing_Machine.X/washiing_machine_functi
      +                          on_def.c: 175:                 case 4:
  2672                           
  2673                           
  2674                           ;../../../../Downloads/Project/Emertxe project/Washing_Machine.X/washiing_machine_functi
      +                          on_def.c: 176:                     sec = 45;
  2675     0C47  302D               	movlw	45
  2676     0C48  1283               	bcf	3,5	;RP0=0, select bank0
  2677     0C49  1303               	bcf	3,6	;RP1=0, select bank0
  2678     0C4A  00EA               	movwf	_sec
  2679                           
  2680                           ;../../../../Downloads/Project/Emertxe project/Washing_Machine.X/washiing_machine_functi
      +                          on_def.c: 177:                     break;
  2681     0C4B  2DA7               	goto	l343
  2682     0C4C                     l3655:
  2683     0C4C  0879               	movf	_level,w
  2684                           
  2685                           ; Switch size 1, requested type "simple"
  2686                           ; Number of cases is 5, Range of values is 0 to 4
  2687                           ; switch strategies available:
  2688                           ; Name         Instructions Cycles
  2689                           ; simple_byte           16     9 (average)
  2690                           ; direct_byte           23     8 (fixed)
  2691                           ; jumptable            260     6 (fixed)
  2692                           ;	Chosen strategy is simple_byte
  2693     0C4D  3A00               	xorlw	0	; case 0
  2694     0C4E  1903               	skipnz
  2695     0C4F  2C42               	goto	l251
  2696     0C50  3A01               	xorlw	1	; case 1
  2697     0C51  1903               	skipnz
  2698     0C52  2C3D               	goto	l248
  2699     0C53  3A03               	xorlw	3	; case 2
  2700     0C54  1903               	skipnz
  2701     0C55  2C42               	goto	l251
  2702     0C56  3A01               	xorlw	1	; case 3
  2703     0C57  1903               	skipnz
  2704     0C58  2C47               	goto	l253
  2705     0C59  3A07               	xorlw	7	; case 4
  2706     0C5A  1903               	skipnz
  2707     0C5B  2C47               	goto	l253
  2708     0C5C  2DA7               	goto	l343
  2709     0C5D                     l3657:
  2710                           
  2711                           ;../../../../Downloads/Project/Emertxe project/Washing_Machine.X/washiing_machine_functi
      +                          on_def.c: 184:                     min = 0;
  2712     0C5D  1283               	bcf	3,5	;RP0=0, select bank0
  2713     0C5E  1303               	bcf	3,6	;RP1=0, select bank0
  2714     0C5F  01E9               	clrf	_min
  2715     0C60                     l3659:
  2716                           
  2717                           ;../../../../Downloads/Project/Emertxe project/Washing_Machine.X/washiing_machine_functi
      +                          on_def.c: 185:                     sec = 43;
  2718     0C60  302B               	movlw	43
  2719     0C61  00EA               	movwf	_sec
  2720                           
  2721                           ;../../../../Downloads/Project/Emertxe project/Washing_Machine.X/washiing_machine_functi
      +                          on_def.c: 186:                     break;
  2722     0C62  2DA7               	goto	l343
  2723     0C63                     l3661:
  2724                           
  2725                           ;../../../../Downloads/Project/Emertxe project/Washing_Machine.X/washiing_machine_functi
      +                          on_def.c: 189:                     min = 0;
  2726     0C63  1283               	bcf	3,5	;RP0=0, select bank0
  2727     0C64  1303               	bcf	3,6	;RP1=0, select bank0
  2728     0C65  01E9               	clrf	_min
  2729     0C66                     l3663:
  2730                           
  2731                           ;../../../../Downloads/Project/Emertxe project/Washing_Machine.X/washiing_machine_functi
      +                          on_def.c: 190:                     sec = 50;
  2732     0C66  3032               	movlw	50
  2733     0C67  00EA               	movwf	_sec
  2734                           
  2735                           ;../../../../Downloads/Project/Emertxe project/Washing_Machine.X/washiing_machine_functi
      +                          on_def.c: 191:                     break;
  2736     0C68  2DA7               	goto	l343
  2737     0C69                     l3665:
  2738                           
  2739                           ;../../../../Downloads/Project/Emertxe project/Washing_Machine.X/washiing_machine_functi
      +                          on_def.c: 195:                     min = 0;
  2740     0C69  1283               	bcf	3,5	;RP0=0, select bank0
  2741     0C6A  1303               	bcf	3,6	;RP1=0, select bank0
  2742     0C6B  01E9               	clrf	_min
  2743     0C6C                     l3667:
  2744                           
  2745                           ;../../../../Downloads/Project/Emertxe project/Washing_Machine.X/washiing_machine_functi
      +                          on_def.c: 196:                     sec = 57;
  2746     0C6C  3039               	movlw	57
  2747     0C6D  00EA               	movwf	_sec
  2748                           
  2749                           ;../../../../Downloads/Project/Emertxe project/Washing_Machine.X/washiing_machine_functi
      +                          on_def.c: 197:                     break;
  2750     0C6E  2DA7               	goto	l343
  2751     0C6F                     l3671:
  2752     0C6F  0879               	movf	_level,w
  2753                           
  2754                           ; Switch size 1, requested type "simple"
  2755                           ; Number of cases is 5, Range of values is 0 to 4
  2756                           ; switch strategies available:
  2757                           ; Name         Instructions Cycles
  2758                           ; simple_byte           16     9 (average)
  2759                           ; direct_byte           23     8 (fixed)
  2760                           ; jumptable            260     6 (fixed)
  2761                           ;	Chosen strategy is simple_byte
  2762     0C70  3A00               	xorlw	0	; case 0
  2763     0C71  1903               	skipnz
  2764     0C72  2C63               	goto	l3661
  2765     0C73  3A01               	xorlw	1	; case 1
  2766     0C74  1903               	skipnz
  2767     0C75  2C5D               	goto	l3657
  2768     0C76  3A03               	xorlw	3	; case 2
  2769     0C77  1903               	skipnz
  2770     0C78  2C63               	goto	l3661
  2771     0C79  3A01               	xorlw	1	; case 3
  2772     0C7A  1903               	skipnz
  2773     0C7B  2C69               	goto	l3665
  2774     0C7C  3A07               	xorlw	7	; case 4
  2775     0C7D  1903               	skipnz
  2776     0C7E  2C69               	goto	l3665
  2777     0C7F  2DA7               	goto	l343
  2778     0C80                     l3673:
  2779                           
  2780                           ;../../../../Downloads/Project/Emertxe project/Washing_Machine.X/washiing_machine_functi
      +                          on_def.c: 206:                     min = 0;
  2781     0C80  1283               	bcf	3,5	;RP0=0, select bank0
  2782     0C81  1303               	bcf	3,6	;RP1=0, select bank0
  2783     0C82  01E9               	clrf	_min
  2784     0C83                     l3675:
  2785                           
  2786                           ;../../../../Downloads/Project/Emertxe project/Washing_Machine.X/washiing_machine_functi
      +                          on_def.c: 207:                     sec = 26;
  2787     0C83  301A               	movlw	26
  2788     0C84  00EA               	movwf	_sec
  2789                           
  2790                           ;../../../../Downloads/Project/Emertxe project/Washing_Machine.X/washiing_machine_functi
      +                          on_def.c: 208:                     break;
  2791     0C85  2DA7               	goto	l343
  2792     0C86                     l3677:
  2793                           
  2794                           ;../../../../Downloads/Project/Emertxe project/Washing_Machine.X/washiing_machine_functi
      +                          on_def.c: 211:                     min = 0;
  2795     0C86  1283               	bcf	3,5	;RP0=0, select bank0
  2796     0C87  1303               	bcf	3,6	;RP1=0, select bank0
  2797     0C88  01E9               	clrf	_min
  2798     0C89                     l3679:
  2799                           
  2800                           ;../../../../Downloads/Project/Emertxe project/Washing_Machine.X/washiing_machine_functi
      +                          on_def.c: 212:                     sec = 31;
  2801     0C89  301F               	movlw	31
  2802     0C8A  00EA               	movwf	_sec
  2803                           
  2804                           ;../../../../Downloads/Project/Emertxe project/Washing_Machine.X/washiing_machine_functi
      +                          on_def.c: 213:                     break;
  2805     0C8B  2DA7               	goto	l343
  2806     0C8C                     l3683:
  2807     0C8C  0879               	movf	_level,w
  2808                           
  2809                           ; Switch size 1, requested type "simple"
  2810                           ; Number of cases is 5, Range of values is 0 to 4
  2811                           ; switch strategies available:
  2812                           ; Name         Instructions Cycles
  2813                           ; simple_byte           16     9 (average)
  2814                           ; direct_byte           23     8 (fixed)
  2815                           ; jumptable            260     6 (fixed)
  2816                           ;	Chosen strategy is simple_byte
  2817     0C8D  3A00               	xorlw	0	; case 0
  2818     0C8E  1903               	skipnz
  2819     0C8F  2C80               	goto	l3673
  2820     0C90  3A01               	xorlw	1	; case 1
  2821     0C91  1903               	skipnz
  2822     0C92  2C80               	goto	l3673
  2823     0C93  3A03               	xorlw	3	; case 2
  2824     0C94  1903               	skipnz
  2825     0C95  2C80               	goto	l3673
  2826     0C96  3A01               	xorlw	1	; case 3
  2827     0C97  1903               	skipnz
  2828     0C98  2C86               	goto	l3677
  2829     0C99  3A07               	xorlw	7	; case 4
  2830     0C9A  1903               	skipnz
  2831     0C9B  2C86               	goto	l3677
  2832     0C9C  2DA7               	goto	l343
  2833     0C9D                     l275:	
  2834                           ;../../../../Downloads/Project/Emertxe project/Washing_Machine.X/washiing_machine_functi
      +                          on_def.c: 221:                 case 0:
  2835                           
  2836     0C9D                     l277:	
  2837                           ;../../../../Downloads/Project/Emertxe project/Washing_Machine.X/washiing_machine_functi
      +                          on_def.c: 223:                 case 4:
  2838                           
  2839                           
  2840                           ;../../../../Downloads/Project/Emertxe project/Washing_Machine.X/washiing_machine_functi
      +                          on_def.c: 224:                     min = 1;
  2841     0C9D  3001               	movlw	1
  2842     0C9E  1283               	bcf	3,5	;RP0=0, select bank0
  2843     0C9F  1303               	bcf	3,6	;RP1=0, select bank0
  2844     0CA0  00E9               	movwf	_min
  2845                           
  2846                           ;../../../../Downloads/Project/Emertxe project/Washing_Machine.X/washiing_machine_functi
      +                          on_def.c: 225:                     sec = 76;
  2847     0CA1  304C               	movlw	76
  2848     0CA2  00EA               	movwf	_sec
  2849                           
  2850                           ;../../../../Downloads/Project/Emertxe project/Washing_Machine.X/washiing_machine_functi
      +                          on_def.c: 226:                     break;
  2851     0CA3  2DA7               	goto	l343
  2852     0CA4                     l3687:
  2853     0CA4  0879               	movf	_level,w
  2854                           
  2855                           ; Switch size 1, requested type "simple"
  2856                           ; Number of cases is 5, Range of values is 0 to 4
  2857                           ; switch strategies available:
  2858                           ; Name         Instructions Cycles
  2859                           ; simple_byte           16     9 (average)
  2860                           ; direct_byte           23     8 (fixed)
  2861                           ; jumptable            260     6 (fixed)
  2862                           ;	Chosen strategy is simple_byte
  2863     0CA5  3A00               	xorlw	0	; case 0
  2864     0CA6  1903               	skipnz
  2865     0CA7  2C9D               	goto	l277
  2866     0CA8  3A01               	xorlw	1	; case 1
  2867     0CA9  1903               	skipnz
  2868     0CAA  2C9D               	goto	l275
  2869     0CAB  3A03               	xorlw	3	; case 2
  2870     0CAC  1903               	skipnz
  2871     0CAD  2C9D               	goto	l277
  2872     0CAE  3A01               	xorlw	1	; case 3
  2873     0CAF  1903               	skipnz
  2874     0CB0  2C9D               	goto	l277
  2875     0CB1  3A07               	xorlw	7	; case 4
  2876     0CB2  1903               	skipnz
  2877     0CB3  2C9D               	goto	l277
  2878     0CB4  2DA7               	goto	l343
  2879     0CB5                     l283:	
  2880                           ;../../../../Downloads/Project/Emertxe project/Washing_Machine.X/washiing_machine_functi
      +                          on_def.c: 234:                 case 0:
  2881                           
  2882     0CB5                     l285:	
  2883                           ;../../../../Downloads/Project/Emertxe project/Washing_Machine.X/washiing_machine_functi
      +                          on_def.c: 236:                 case 4:
  2884                           
  2885                           
  2886                           ;../../../../Downloads/Project/Emertxe project/Washing_Machine.X/washiing_machine_functi
      +                          on_def.c: 237:                     min = 1;
  2887     0CB5  3001               	movlw	1
  2888     0CB6  1283               	bcf	3,5	;RP0=0, select bank0
  2889     0CB7  1303               	bcf	3,6	;RP1=0, select bank0
  2890     0CB8  00E9               	movwf	_min
  2891                           
  2892                           ;../../../../Downloads/Project/Emertxe project/Washing_Machine.X/washiing_machine_functi
      +                          on_def.c: 238:                     sec = 96;
  2893     0CB9  3060               	movlw	96
  2894     0CBA  00EA               	movwf	_sec
  2895                           
  2896                           ;../../../../Downloads/Project/Emertxe project/Washing_Machine.X/washiing_machine_functi
      +                          on_def.c: 239:                     break;
  2897     0CBB  2DA7               	goto	l343
  2898     0CBC                     l3691:
  2899     0CBC  0879               	movf	_level,w
  2900                           
  2901                           ; Switch size 1, requested type "simple"
  2902                           ; Number of cases is 5, Range of values is 0 to 4
  2903                           ; switch strategies available:
  2904                           ; Name         Instructions Cycles
  2905                           ; simple_byte           16     9 (average)
  2906                           ; direct_byte           23     8 (fixed)
  2907                           ; jumptable            260     6 (fixed)
  2908                           ;	Chosen strategy is simple_byte
  2909     0CBD  3A00               	xorlw	0	; case 0
  2910     0CBE  1903               	skipnz
  2911     0CBF  2CB5               	goto	l285
  2912     0CC0  3A01               	xorlw	1	; case 1
  2913     0CC1  1903               	skipnz
  2914     0CC2  2CB5               	goto	l283
  2915     0CC3  3A03               	xorlw	3	; case 2
  2916     0CC4  1903               	skipnz
  2917     0CC5  2CB5               	goto	l285
  2918     0CC6  3A01               	xorlw	1	; case 3
  2919     0CC7  1903               	skipnz
  2920     0CC8  2CB5               	goto	l285
  2921     0CC9  3A07               	xorlw	7	; case 4
  2922     0CCA  1903               	skipnz
  2923     0CCB  2CB5               	goto	l285
  2924     0CCC  2DA7               	goto	l343
  2925     0CCD                     l3697:
  2926                           
  2927                           ;../../../../Downloads/Project/Emertxe project/Washing_Machine.X/washiing_machine_functi
      +                          on_def.c: 254:                     min = 0;
  2928     0CCD  1283               	bcf	3,5	;RP0=0, select bank0
  2929     0CCE  1303               	bcf	3,6	;RP1=0, select bank0
  2930     0CCF  01E9               	clrf	_min
  2931     0CD0                     l3699:
  2932                           
  2933                           ;../../../../Downloads/Project/Emertxe project/Washing_Machine.X/washiing_machine_functi
      +                          on_def.c: 255:                     sec = 36;
  2934     0CD0  3024               	movlw	36
  2935     0CD1  00EA               	movwf	_sec
  2936                           
  2937                           ;../../../../Downloads/Project/Emertxe project/Washing_Machine.X/washiing_machine_functi
      +                          on_def.c: 256:                     break;
  2938     0CD2  2DA7               	goto	l343
  2939     0CD3                     l3703:
  2940     0CD3  0879               	movf	_level,w
  2941                           
  2942                           ; Switch size 1, requested type "simple"
  2943                           ; Number of cases is 5, Range of values is 0 to 4
  2944                           ; switch strategies available:
  2945                           ; Name         Instructions Cycles
  2946                           ; simple_byte           16     9 (average)
  2947                           ; direct_byte           23     8 (fixed)
  2948                           ; jumptable            260     6 (fixed)
  2949                           ;	Chosen strategy is simple_byte
  2950     0CD4  3A00               	xorlw	0	; case 0
  2951     0CD5  1903               	skipnz
  2952     0CD6  2C86               	goto	l3677
  2953     0CD7  3A01               	xorlw	1	; case 1
  2954     0CD8  1903               	skipnz
  2955     0CD9  2C86               	goto	l3677
  2956     0CDA  3A03               	xorlw	3	; case 2
  2957     0CDB  1903               	skipnz
  2958     0CDC  2C86               	goto	l3677
  2959     0CDD  3A01               	xorlw	1	; case 3
  2960     0CDE  1903               	skipnz
  2961     0CDF  2CCD               	goto	l3697
  2962     0CE0  3A07               	xorlw	7	; case 4
  2963     0CE1  1903               	skipnz
  2964     0CE2  2CCD               	goto	l3697
  2965     0CE3  2DA7               	goto	l343
  2966     0CE4                     l300:	
  2967                           ;../../../../Downloads/Project/Emertxe project/Washing_Machine.X/washiing_machine_functi
      +                          on_def.c: 265:                 case 3:
  2968                           
  2969     0CE4                     l3705:
  2970                           
  2971                           ;../../../../Downloads/Project/Emertxe project/Washing_Machine.X/washiing_machine_functi
      +                          on_def.c: 267:                     min = 0;
  2972     0CE4  1283               	bcf	3,5	;RP0=0, select bank0
  2973     0CE5  1303               	bcf	3,6	;RP1=0, select bank0
  2974     0CE6  01E9               	clrf	_min
  2975     0CE7                     l3707:
  2976                           
  2977                           ;../../../../Downloads/Project/Emertxe project/Washing_Machine.X/washiing_machine_functi
      +                          on_def.c: 268:                     sec = 29;
  2978     0CE7  301D               	movlw	29
  2979     0CE8  00EA               	movwf	_sec
  2980                           
  2981                           ;../../../../Downloads/Project/Emertxe project/Washing_Machine.X/washiing_machine_functi
      +                          on_def.c: 269:                     break;
  2982     0CE9  2DA7               	goto	l343
  2983     0CEA                     l3711:
  2984     0CEA  0879               	movf	_level,w
  2985                           
  2986                           ; Switch size 1, requested type "simple"
  2987                           ; Number of cases is 5, Range of values is 0 to 4
  2988                           ; switch strategies available:
  2989                           ; Name         Instructions Cycles
  2990                           ; simple_byte           16     9 (average)
  2991                           ; direct_byte           23     8 (fixed)
  2992                           ; jumptable            260     6 (fixed)
  2993                           ;	Chosen strategy is simple_byte
  2994     0CEB  3A00               	xorlw	0	; case 0
  2995     0CEC  1903               	skipnz
  2996     0CED  2CE4               	goto	l3705
  2997     0CEE  3A01               	xorlw	1	; case 1
  2998     0CEF  1903               	skipnz
  2999     0CF0  2CE4               	goto	l300
  3000     0CF1  3A03               	xorlw	3	; case 2
  3001     0CF2  1903               	skipnz
  3002     0CF3  2CE4               	goto	l3705
  3003     0CF4  3A01               	xorlw	1	; case 3
  3004     0CF5  1903               	skipnz
  3005     0CF6  2CE4               	goto	l3705
  3006     0CF7  3A07               	xorlw	7	; case 4
  3007     0CF8  1903               	skipnz
  3008     0CF9  2CE4               	goto	l3705
  3009     0CFA  2DA7               	goto	l343
  3010     0CFB                     l3713:
  3011                           
  3012                           ;../../../../Downloads/Project/Emertxe project/Washing_Machine.X/washiing_machine_functi
      +                          on_def.c: 276:                     min = 0;
  3013     0CFB  1283               	bcf	3,5	;RP0=0, select bank0
  3014     0CFC  1303               	bcf	3,6	;RP1=0, select bank0
  3015     0CFD  01E9               	clrf	_min
  3016     0CFE                     l3715:
  3017                           
  3018                           ;../../../../Downloads/Project/Emertxe project/Washing_Machine.X/washiing_machine_functi
      +                          on_def.c: 277:                     sec = 46;
  3019     0CFE  302E               	movlw	46
  3020     0CFF  00EA               	movwf	_sec
  3021                           
  3022                           ;../../../../Downloads/Project/Emertxe project/Washing_Machine.X/washiing_machine_functi
      +                          on_def.c: 278:                     break;
  3023     0D00  2DA7               	goto	l343
  3024     0D01                     l3717:
  3025                           
  3026                           ;../../../../Downloads/Project/Emertxe project/Washing_Machine.X/washiing_machine_functi
      +                          on_def.c: 281:                     min = 0;
  3027     0D01  1283               	bcf	3,5	;RP0=0, select bank0
  3028     0D02  1303               	bcf	3,6	;RP1=0, select bank0
  3029     0D03  01E9               	clrf	_min
  3030     0D04                     l3719:
  3031                           
  3032                           ;../../../../Downloads/Project/Emertxe project/Washing_Machine.X/washiing_machine_functi
      +                          on_def.c: 282:                     sec = 53;
  3033     0D04  3035               	movlw	53
  3034     0D05  00EA               	movwf	_sec
  3035                           
  3036                           ;../../../../Downloads/Project/Emertxe project/Washing_Machine.X/washiing_machine_functi
      +                          on_def.c: 283:                     break;
  3037     0D06  2DA7               	goto	l343
  3038     0D07                     l310:	
  3039                           ;../../../../Downloads/Project/Emertxe project/Washing_Machine.X/washiing_machine_functi
      +                          on_def.c: 286:                 case 4:
  3040                           
  3041                           
  3042                           ;../../../../Downloads/Project/Emertxe project/Washing_Machine.X/washiing_machine_functi
      +                          on_def.c: 287:                     min = 1;
  3043     0D07  3001               	movlw	1
  3044     0D08  1283               	bcf	3,5	;RP0=0, select bank0
  3045     0D09  1303               	bcf	3,6	;RP1=0, select bank0
  3046     0D0A  00E9               	movwf	_min
  3047     0D0B                     l3721:
  3048                           
  3049                           ;../../../../Downloads/Project/Emertxe project/Washing_Machine.X/washiing_machine_functi
      +                          on_def.c: 288:                     sec = 00;
  3050     0D0B  01EA               	clrf	_sec
  3051                           
  3052                           ;../../../../Downloads/Project/Emertxe project/Washing_Machine.X/washiing_machine_functi
      +                          on_def.c: 289:                     break;
  3053     0D0C  2DA7               	goto	l343
  3054     0D0D                     l3725:
  3055     0D0D  0879               	movf	_level,w
  3056                           
  3057                           ; Switch size 1, requested type "simple"
  3058                           ; Number of cases is 5, Range of values is 0 to 4
  3059                           ; switch strategies available:
  3060                           ; Name         Instructions Cycles
  3061                           ; simple_byte           16     9 (average)
  3062                           ; direct_byte           23     8 (fixed)
  3063                           ; jumptable            260     6 (fixed)
  3064                           ;	Chosen strategy is simple_byte
  3065     0D0E  3A00               	xorlw	0	; case 0
  3066     0D0F  1903               	skipnz
  3067     0D10  2D01               	goto	l3717
  3068     0D11  3A01               	xorlw	1	; case 1
  3069     0D12  1903               	skipnz
  3070     0D13  2CFB               	goto	l3713
  3071     0D14  3A03               	xorlw	3	; case 2
  3072     0D15  1903               	skipnz
  3073     0D16  2D01               	goto	l3717
  3074     0D17  3A01               	xorlw	1	; case 3
  3075     0D18  1903               	skipnz
  3076     0D19  2D07               	goto	l310
  3077     0D1A  3A07               	xorlw	7	; case 4
  3078     0D1B  1903               	skipnz
  3079     0D1C  2D07               	goto	l310
  3080     0D1D  2DA7               	goto	l343
  3081     0D1E                     l3727:
  3082                           
  3083                           ;../../../../Downloads/Project/Emertxe project/Washing_Machine.X/washiing_machine_functi
      +                          on_def.c: 296:                     min = 0;
  3084     0D1E  1283               	bcf	3,5	;RP0=0, select bank0
  3085     0D1F  1303               	bcf	3,6	;RP1=0, select bank0
  3086     0D20  01E9               	clrf	_min
  3087     0D21                     l3729:
  3088                           
  3089                           ;../../../../Downloads/Project/Emertxe project/Washing_Machine.X/washiing_machine_functi
      +                          on_def.c: 297:                     sec = 18;
  3090     0D21  3012               	movlw	18
  3091     0D22  00EA               	movwf	_sec
  3092                           
  3093                           ;../../../../Downloads/Project/Emertxe project/Washing_Machine.X/washiing_machine_functi
      +                          on_def.c: 298:                     break;
  3094     0D23  2DA7               	goto	l343
  3095     0D24                     l3731:
  3096                           
  3097                           ;../../../../Downloads/Project/Emertxe project/Washing_Machine.X/washiing_machine_functi
      +                          on_def.c: 301:                     min = 0;
  3098     0D24  1283               	bcf	3,5	;RP0=0, select bank0
  3099     0D25  1303               	bcf	3,6	;RP1=0, select bank0
  3100     0D26  01E9               	clrf	_min
  3101     0D27                     l3733:
  3102                           
  3103                           ;../../../../Downloads/Project/Emertxe project/Washing_Machine.X/washiing_machine_functi
      +                          on_def.c: 302:                     sec = 20;
  3104     0D27  3014               	movlw	20
  3105     0D28  00EA               	movwf	_sec
  3106                           
  3107                           ;../../../../Downloads/Project/Emertxe project/Washing_Machine.X/washiing_machine_functi
      +                          on_def.c: 303:                     break;
  3108     0D29  2DA7               	goto	l343
  3109     0D2A                     l3741:
  3110     0D2A  0879               	movf	_level,w
  3111                           
  3112                           ; Switch size 1, requested type "simple"
  3113                           ; Number of cases is 5, Range of values is 0 to 4
  3114                           ; switch strategies available:
  3115                           ; Name         Instructions Cycles
  3116                           ; simple_byte           16     9 (average)
  3117                           ; direct_byte           23     8 (fixed)
  3118                           ; jumptable            260     6 (fixed)
  3119                           ;	Chosen strategy is simple_byte
  3120     0D2B  3A00               	xorlw	0	; case 0
  3121     0D2C  1903               	skipnz
  3122     0D2D  2D24               	goto	l3731
  3123     0D2E  3A01               	xorlw	1	; case 1
  3124     0D2F  1903               	skipnz
  3125     0D30  2D1E               	goto	l3727
  3126     0D31  3A03               	xorlw	3	; case 2
  3127     0D32  1903               	skipnz
  3128     0D33  2D24               	goto	l3731
  3129     0D34  3A01               	xorlw	1	; case 3
  3130     0D35  1903               	skipnz
  3131     0D36  2D24               	goto	l3731
  3132     0D37  3A07               	xorlw	7	; case 4
  3133     0D38  1903               	skipnz
  3134     0D39  2D24               	goto	l3731
  3135     0D3A  2DA7               	goto	l343
  3136     0D3B                     l324:	
  3137                           ;../../../../Downloads/Project/Emertxe project/Washing_Machine.X/washiing_machine_functi
      +                          on_def.c: 317:                 case 3:
  3138                           
  3139     0D3B                     l3743:
  3140                           
  3141                           ;../../../../Downloads/Project/Emertxe project/Washing_Machine.X/washiing_machine_functi
      +                          on_def.c: 319:                     min = 0;
  3142     0D3B  1283               	bcf	3,5	;RP0=0, select bank0
  3143     0D3C  1303               	bcf	3,6	;RP1=0, select bank0
  3144     0D3D  01E9               	clrf	_min
  3145     0D3E                     l3745:
  3146                           
  3147                           ;../../../../Downloads/Project/Emertxe project/Washing_Machine.X/washiing_machine_functi
      +                          on_def.c: 320:                     sec = 6;
  3148     0D3E  3006               	movlw	6
  3149     0D3F  00EA               	movwf	_sec
  3150                           
  3151                           ;../../../../Downloads/Project/Emertxe project/Washing_Machine.X/washiing_machine_functi
      +                          on_def.c: 321:                     break;
  3152     0D40  2DA7               	goto	l343
  3153     0D41                     l3749:
  3154     0D41  0879               	movf	_level,w
  3155                           
  3156                           ; Switch size 1, requested type "simple"
  3157                           ; Number of cases is 5, Range of values is 0 to 4
  3158                           ; switch strategies available:
  3159                           ; Name         Instructions Cycles
  3160                           ; simple_byte           16     9 (average)
  3161                           ; direct_byte           23     8 (fixed)
  3162                           ; jumptable            260     6 (fixed)
  3163                           ;	Chosen strategy is simple_byte
  3164     0D42  3A00               	xorlw	0	; case 0
  3165     0D43  1903               	skipnz
  3166     0D44  2D3B               	goto	l3743
  3167     0D45  3A01               	xorlw	1	; case 1
  3168     0D46  1903               	skipnz
  3169     0D47  2D3B               	goto	l324
  3170     0D48  3A03               	xorlw	3	; case 2
  3171     0D49  1903               	skipnz
  3172     0D4A  2D3B               	goto	l3743
  3173     0D4B  3A01               	xorlw	1	; case 3
  3174     0D4C  1903               	skipnz
  3175     0D4D  2D3B               	goto	l3743
  3176     0D4E  3A07               	xorlw	7	; case 4
  3177     0D4F  1903               	skipnz
  3178     0D50  2D3B               	goto	l3743
  3179     0D51  2DA7               	goto	l343
  3180     0D52                     l3751:
  3181                           
  3182                           ;../../../../Downloads/Project/Emertxe project/Washing_Machine.X/washiing_machine_functi
      +                          on_def.c: 328:                     min = 0;
  3183     0D52  1283               	bcf	3,5	;RP0=0, select bank0
  3184     0D53  1303               	bcf	3,6	;RP1=0, select bank0
  3185     0D54  01E9               	clrf	_min
  3186     0D55                     l3753:
  3187                           
  3188                           ;../../../../Downloads/Project/Emertxe project/Washing_Machine.X/washiing_machine_functi
      +                          on_def.c: 329:                     sec = 16;
  3189     0D55  3010               	movlw	16
  3190     0D56  00EA               	movwf	_sec
  3191                           
  3192                           ;../../../../Downloads/Project/Emertxe project/Washing_Machine.X/washiing_machine_functi
      +                          on_def.c: 330:                     break;
  3193     0D57  2DA7               	goto	l343
  3194     0D58                     l3755:
  3195                           
  3196                           ;../../../../Downloads/Project/Emertxe project/Washing_Machine.X/washiing_machine_functi
      +                          on_def.c: 333:                     min = 0;
  3197     0D58  1283               	bcf	3,5	;RP0=0, select bank0
  3198     0D59  1303               	bcf	3,6	;RP1=0, select bank0
  3199     0D5A  01E9               	clrf	_min
  3200     0D5B                     l3757:
  3201                           
  3202                           ;../../../../Downloads/Project/Emertxe project/Washing_Machine.X/washiing_machine_functi
      +                          on_def.c: 334:                     sec = 21;
  3203     0D5B  3015               	movlw	21
  3204     0D5C  00EA               	movwf	_sec
  3205                           
  3206                           ;../../../../Downloads/Project/Emertxe project/Washing_Machine.X/washiing_machine_functi
      +                          on_def.c: 335:                     break;
  3207     0D5D  2DA7               	goto	l343
  3208     0D5E                     l3765:
  3209     0D5E  0879               	movf	_level,w
  3210                           
  3211                           ; Switch size 1, requested type "simple"
  3212                           ; Number of cases is 5, Range of values is 0 to 4
  3213                           ; switch strategies available:
  3214                           ; Name         Instructions Cycles
  3215                           ; simple_byte           16     9 (average)
  3216                           ; direct_byte           23     8 (fixed)
  3217                           ; jumptable            260     6 (fixed)
  3218                           ;	Chosen strategy is simple_byte
  3219     0D5F  3A00               	xorlw	0	; case 0
  3220     0D60  1903               	skipnz
  3221     0D61  2D58               	goto	l3755
  3222     0D62  3A01               	xorlw	1	; case 1
  3223     0D63  1903               	skipnz
  3224     0D64  2D52               	goto	l3751
  3225     0D65  3A03               	xorlw	3	; case 2
  3226     0D66  1903               	skipnz
  3227     0D67  2D58               	goto	l3755
  3228     0D68  3A01               	xorlw	1	; case 3
  3229     0D69  1903               	skipnz
  3230     0D6A  2C80               	goto	l3673
  3231     0D6B  3A07               	xorlw	7	; case 4
  3232     0D6C  1903               	skipnz
  3233     0D6D  2C80               	goto	l3673
  3234     0D6E  2DA7               	goto	l343
  3235     0D6F                     l340:	
  3236                           ;../../../../Downloads/Project/Emertxe project/Washing_Machine.X/washiing_machine_functi
      +                          on_def.c: 350:                 case 3:
  3237                           
  3238     0D6F  2C63               	goto	l3661
  3239     0D70                     l3773:
  3240     0D70  0879               	movf	_level,w
  3241                           
  3242                           ; Switch size 1, requested type "simple"
  3243                           ; Number of cases is 5, Range of values is 0 to 4
  3244                           ; switch strategies available:
  3245                           ; Name         Instructions Cycles
  3246                           ; simple_byte           16     9 (average)
  3247                           ; direct_byte           23     8 (fixed)
  3248                           ; jumptable            260     6 (fixed)
  3249                           ;	Chosen strategy is simple_byte
  3250     0D71  3A00               	xorlw	0	; case 0
  3251     0D72  1903               	skipnz
  3252     0D73  2C63               	goto	l3661
  3253     0D74  3A01               	xorlw	1	; case 1
  3254     0D75  1903               	skipnz
  3255     0D76  2D6F               	goto	l340
  3256     0D77  3A03               	xorlw	3	; case 2
  3257     0D78  1903               	skipnz
  3258     0D79  2C63               	goto	l3661
  3259     0D7A  3A01               	xorlw	1	; case 3
  3260     0D7B  1903               	skipnz
  3261     0D7C  2C63               	goto	l3661
  3262     0D7D  3A07               	xorlw	7	; case 4
  3263     0D7E  1903               	skipnz
  3264     0D7F  2C63               	goto	l3661
  3265     0D80  2DA7               	goto	l343
  3266     0D81                     l3777:
  3267     0D81  087A               	movf	_program_no,w
  3268                           
  3269                           ; Switch size 1, requested type "simple"
  3270                           ; Number of cases is 12, Range of values is 0 to 11
  3271                           ; switch strategies available:
  3272                           ; Name         Instructions Cycles
  3273                           ; simple_byte           37    19 (average)
  3274                           ; direct_byte           44     8 (fixed)
  3275                           ; jumptable            260     6 (fixed)
  3276                           ;	Chosen strategy is simple_byte
  3277     0D82  3A00               	xorlw	0	; case 0
  3278     0D83  1903               	skipnz
  3279     0D84  2C4C               	goto	l3655
  3280     0D85  3A01               	xorlw	1	; case 1
  3281     0D86  1903               	skipnz
  3282     0D87  2C6F               	goto	l3671
  3283     0D88  3A03               	xorlw	3	; case 2
  3284     0D89  1903               	skipnz
  3285     0D8A  2C8C               	goto	l3683
  3286     0D8B  3A01               	xorlw	1	; case 3
  3287     0D8C  1903               	skipnz
  3288     0D8D  2CA4               	goto	l3687
  3289     0D8E  3A07               	xorlw	7	; case 4
  3290     0D8F  1903               	skipnz
  3291     0D90  2CBC               	goto	l3691
  3292     0D91  3A01               	xorlw	1	; case 5
  3293     0D92  1903               	skipnz
  3294     0D93  2CD3               	goto	l3703
  3295     0D94  3A03               	xorlw	3	; case 6
  3296     0D95  1903               	skipnz
  3297     0D96  2CEA               	goto	l3711
  3298     0D97  3A01               	xorlw	1	; case 7
  3299     0D98  1903               	skipnz
  3300     0D99  2D0D               	goto	l3725
  3301     0D9A  3A0F               	xorlw	15	; case 8
  3302     0D9B  1903               	skipnz
  3303     0D9C  2D2A               	goto	l3741
  3304     0D9D  3A01               	xorlw	1	; case 9
  3305     0D9E  1903               	skipnz
  3306     0D9F  2D41               	goto	l3749
  3307     0DA0  3A03               	xorlw	3	; case 10
  3308     0DA1  1903               	skipnz
  3309     0DA2  2D5E               	goto	l3765
  3310     0DA3  3A01               	xorlw	1	; case 11
  3311     0DA4  1903               	skipnz
  3312     0DA5  2D70               	goto	l3773
  3313     0DA6  2DA7               	goto	l343
  3314     0DA7                     l343:
  3315     0DA7  0008               	return
  3316     0DA8                     __end_of_set_time:
  3317                           
  3318                           	psect	text4
  3319     004B                     __ptext4:	
  3320 ;; *************** function _run_program *****************
  3321 ;; Defined at:
  3322 ;;		line 85 in file "../../../../Downloads/Project/Emertxe project/Washing_Machine.X/washiing_machine_function_def.c"
  3323 ;; Parameters:    Size  Location     Type
  3324 ;;  key             1    wreg     unsigned char 
  3325 ;; Auto vars:     Size  Location     Type
  3326 ;;  key             1   62[BANK0 ] unsigned char 
  3327 ;; Return value:  Size  Location     Type
  3328 ;;                  1    wreg      void 
  3329 ;; Registers used:
  3330 ;;		wreg, fsr0l, fsr0h, status,2, status,0, btemp+1, pclath, cstack
  3331 ;; Tracked objects:
  3332 ;;		On entry : 0/0
  3333 ;;		On exit  : 0/0
  3334 ;;		Unchanged: 0/0
  3335 ;; Data sizes:     COMMON   BANK0   BANK1   BANK3   BANK2
  3336 ;;      Params:         0       0       0       0       0
  3337 ;;      Locals:         0       1       0       0       0
  3338 ;;      Temps:          0       6       0       0       0
  3339 ;;      Totals:         0       7       0       0       0
  3340 ;;Total ram usage:        7 bytes
  3341 ;; Hardware stack levels used: 1
  3342 ;; Hardware stack levels required when called: 4
  3343 ;; This function calls:
  3344 ;;		___awdiv
  3345 ;;		___awmod
  3346 ;;		___flge
  3347 ;;		___flmul
  3348 ;;		___flsub
  3349 ;;		___fltol
  3350 ;;		___wmul
  3351 ;;		___xxtofl
  3352 ;;		_clcd_print
  3353 ;;		_clcd_putch
  3354 ;;		_clear_screen
  3355 ;;		_door_status_check
  3356 ;; This function is called by:
  3357 ;;		_main
  3358 ;; This function uses a non-reentrant model
  3359 ;;
  3360                           
  3361     004B                     _run_program:	
  3362                           ;psect for function _run_program
  3363                           
  3364                           
  3365                           ;incstack = 0
  3366                           ; Regs used in _run_program: [wreg-fsr0h+status,2+status,0+btemp+1+pclath+cstack]
  3367                           ;run_program@key stored from wreg
  3368     004B  1283               	bcf	3,5	;RP0=0, select bank0
  3369     004C  1303               	bcf	3,6	;RP1=0, select bank0
  3370     004D  00DE               	movwf	run_program@key
  3371     004E                     l4073:
  3372                           
  3373                           ;../../../../Downloads/Project/Emertxe project/Washing_Machine.X/washiing_machine_functi
      +                          on_def.c: 86:     door_status_check();
  3374     004E  160A  118A  2660  120A  118A  	fcall	_door_status_check
  3375     0053                     l4075:
  3376                           
  3377                           ;../../../../Downloads/Project/Emertxe project/Washing_Machine.X/washiing_machine_functi
      +                          on_def.c: 87:     if (reset_flag == 0x33) {
  3378     0053  3033               	movlw	51
  3379     0054  1283               	bcf	3,5	;RP0=0, select bank0
  3380     0055  1303               	bcf	3,6	;RP1=0, select bank0
  3381     0056  066E               	xorwf	_reset_flag,w
  3382     0057  1D03               	btfss	3,2
  3383     0058  285A               	goto	u5431
  3384     0059  285B               	goto	u5430
  3385     005A                     u5431:
  3386     005A  2A14               	goto	l4119
  3387     005B                     u5430:
  3388     005B                     l4077:
  3389                           
  3390                           ;../../../../Downloads/Project/Emertxe project/Washing_Machine.X/washiing_machine_functi
      +                          on_def.c: 88:         clear_screen();
  3391     005B  160A  118A  2454  120A  118A  	fcall	_clear_screen
  3392     0060                     l4079:
  3393                           
  3394                           ;../../../../Downloads/Project/Emertxe project/Washing_Machine.X/washiing_machine_functi
      +                          on_def.c: 89:         clcd_print("Prog:", (0x80 + 0));
  3395     0060  305C               	movlw	low (STR_28| (0+32768))
  3396     0061  1283               	bcf	3,5	;RP0=0, select bank0
  3397     0062  1303               	bcf	3,6	;RP1=0, select bank0
  3398     0063  00A0               	movwf	clcd_print@str
  3399     0064  3091               	movlw	high (STR_28| (0+32768))
  3400     0065  00A1               	movwf	clcd_print@str+1
  3401     0066  3080               	movlw	128
  3402     0067  00A2               	movwf	clcd_print@addr
  3403     0068  160A  118A  2532  120A  118A  	fcall	_clcd_print
  3404     006D                     l4081:
  3405                           
  3406                           ;../../../../Downloads/Project/Emertxe project/Washing_Machine.X/washiing_machine_functi
      +                          on_def.c: 90:         clcd_print(washing_program[program_no], (0x80 + 6));
  3407     006D  087A               	movf	_program_no,w
  3408     006E  1283               	bcf	3,5	;RP0=0, select bank0
  3409     006F  1303               	bcf	3,6	;RP1=0, select bank0
  3410     0070  00D8               	movwf	??_run_program
  3411     0071  0758               	addwf	??_run_program,w
  3412     0072  3EA0               	addlw	(low (_washing_program| 0))& (0+255)
  3413     0073  0084               	movwf	4
  3414     0074  1383               	bcf	3,7	;select IRP bank1
  3415     0075  0800               	movf	0,w
  3416     0076  00A0               	movwf	clcd_print@str
  3417     0077  0A84               	incf	4,f
  3418     0078  0800               	movf	0,w
  3419     0079  0384               	decf	4,f
  3420     007A  00A1               	movwf	clcd_print@str+1
  3421     007B  3086               	movlw	134
  3422     007C  00A2               	movwf	clcd_print@addr
  3423     007D  160A  118A  2532  120A  118A  	fcall	_clcd_print
  3424     0082                     l4083:
  3425                           
  3426                           ;../../../../Downloads/Project/Emertxe project/Washing_Machine.X/washiing_machine_functi
      +                          on_def.c: 91:         clcd_print("Time:", (0xC0 + 0));
  3427     0082  3056               	movlw	low (STR_29| (0+32768))
  3428     0083  1283               	bcf	3,5	;RP0=0, select bank0
  3429     0084  1303               	bcf	3,6	;RP1=0, select bank0
  3430     0085  00A0               	movwf	clcd_print@str
  3431     0086  3091               	movlw	high (STR_29| (0+32768))
  3432     0087  00A1               	movwf	clcd_print@str+1
  3433     0088  30C0               	movlw	192
  3434     0089  00A2               	movwf	clcd_print@addr
  3435     008A  160A  118A  2532  120A  118A  	fcall	_clcd_print
  3436     008F                     l4085:
  3437                           
  3438                           ;../../../../Downloads/Project/Emertxe project/Washing_Machine.X/washiing_machine_functi
      +                          on_def.c: 94:         clcd_putch(min / 10 + '0', (0xC0 + 6));
  3439     008F  30C6               	movlw	198
  3440     0090  00F8               	movwf	clcd_putch@addr
  3441     0091  300A               	movlw	10
  3442     0092  00F2               	movwf	___awdiv@divisor
  3443     0093  3000               	movlw	0
  3444     0094  00F3               	movwf	___awdiv@divisor+1
  3445     0095  1283               	bcf	3,5	;RP0=0, select bank0
  3446     0096  1303               	bcf	3,6	;RP1=0, select bank0
  3447     0097  0869               	movf	_min,w
  3448     0098  00D8               	movwf	??_run_program
  3449     0099  01D9               	clrf	??_run_program+1
  3450     009A  0858               	movf	??_run_program,w
  3451     009B  00F4               	movwf	___awdiv@dividend
  3452     009C  0859               	movf	??_run_program+1,w
  3453     009D  00F5               	movwf	___awdiv@dividend+1
  3454     009E  160A  118A  26BE  120A  118A  	fcall	___awdiv
  3455     00A3  0872               	movf	?___awdiv,w
  3456     00A4  3E30               	addlw	48
  3457     00A5  160A  118A  2478  120A  118A  	fcall	_clcd_putch
  3458     00AA                     l4087:
  3459                           
  3460                           ;../../../../Downloads/Project/Emertxe project/Washing_Machine.X/washiing_machine_functi
      +                          on_def.c: 95:         clcd_putch(min % 10 + '0', (0xC0 + 7));
  3461     00AA  30C7               	movlw	199
  3462     00AB  00F8               	movwf	clcd_putch@addr
  3463     00AC  300A               	movlw	10
  3464     00AD  00F2               	movwf	___awmod@divisor
  3465     00AE  3000               	movlw	0
  3466     00AF  00F3               	movwf	___awmod@divisor+1
  3467     00B0  1283               	bcf	3,5	;RP0=0, select bank0
  3468     00B1  1303               	bcf	3,6	;RP1=0, select bank0
  3469     00B2  0869               	movf	_min,w
  3470     00B3  00D8               	movwf	??_run_program
  3471     00B4  01D9               	clrf	??_run_program+1
  3472     00B5  0858               	movf	??_run_program,w
  3473     00B6  00F4               	movwf	___awmod@dividend
  3474     00B7  0859               	movf	??_run_program+1,w
  3475     00B8  00F5               	movwf	___awmod@dividend+1
  3476     00B9  160A  118A  2609  120A  118A  	fcall	___awmod
  3477     00BE  0872               	movf	?___awmod,w
  3478     00BF  3E30               	addlw	48
  3479     00C0  160A  118A  2478  120A  118A  	fcall	_clcd_putch
  3480     00C5                     l4089:
  3481                           
  3482                           ;../../../../Downloads/Project/Emertxe project/Washing_Machine.X/washiing_machine_functi
      +                          on_def.c: 96:         clcd_putch(':', (0xC0 + 8));
  3483     00C5  30C8               	movlw	200
  3484     00C6  00F8               	movwf	clcd_putch@addr
  3485     00C7  303A               	movlw	58
  3486     00C8  160A  118A  2478  120A  118A  	fcall	_clcd_putch
  3487     00CD                     l4091:
  3488                           
  3489                           ;../../../../Downloads/Project/Emertxe project/Washing_Machine.X/washiing_machine_functi
      +                          on_def.c: 97:         clcd_putch(sec / 10 + '0', (0xC0 + 9));
  3490     00CD  30C9               	movlw	201
  3491     00CE  00F8               	movwf	clcd_putch@addr
  3492     00CF  300A               	movlw	10
  3493     00D0  00F2               	movwf	___awdiv@divisor
  3494     00D1  3000               	movlw	0
  3495     00D2  00F3               	movwf	___awdiv@divisor+1
  3496     00D3  1283               	bcf	3,5	;RP0=0, select bank0
  3497     00D4  1303               	bcf	3,6	;RP1=0, select bank0
  3498     00D5  086A               	movf	_sec,w
  3499     00D6  00D8               	movwf	??_run_program
  3500     00D7  01D9               	clrf	??_run_program+1
  3501     00D8  0858               	movf	??_run_program,w
  3502     00D9  00F4               	movwf	___awdiv@dividend
  3503     00DA  0859               	movf	??_run_program+1,w
  3504     00DB  00F5               	movwf	___awdiv@dividend+1
  3505     00DC  160A  118A  26BE  120A  118A  	fcall	___awdiv
  3506     00E1  0872               	movf	?___awdiv,w
  3507     00E2  3E30               	addlw	48
  3508     00E3  160A  118A  2478  120A  118A  	fcall	_clcd_putch
  3509     00E8                     l4093:
  3510                           
  3511                           ;../../../../Downloads/Project/Emertxe project/Washing_Machine.X/washiing_machine_functi
      +                          on_def.c: 98:         clcd_putch(sec % 10 + '0', (0xC0 + 10));
  3512     00E8  30CA               	movlw	202
  3513     00E9  00F8               	movwf	clcd_putch@addr
  3514     00EA  300A               	movlw	10
  3515     00EB  00F2               	movwf	___awmod@divisor
  3516     00EC  3000               	movlw	0
  3517     00ED  00F3               	movwf	___awmod@divisor+1
  3518     00EE  1283               	bcf	3,5	;RP0=0, select bank0
  3519     00EF  1303               	bcf	3,6	;RP1=0, select bank0
  3520     00F0  086A               	movf	_sec,w
  3521     00F1  00D8               	movwf	??_run_program
  3522     00F2  01D9               	clrf	??_run_program+1
  3523     00F3  0858               	movf	??_run_program,w
  3524     00F4  00F4               	movwf	___awmod@dividend
  3525     00F5  0859               	movf	??_run_program+1,w
  3526     00F6  00F5               	movwf	___awmod@dividend+1
  3527     00F7  160A  118A  2609  120A  118A  	fcall	___awmod
  3528     00FC  0872               	movf	?___awmod,w
  3529     00FD  3E30               	addlw	48
  3530     00FE  160A  118A  2478  120A  118A  	fcall	_clcd_putch
  3531     0103                     l4095:
  3532                           
  3533                           ;../../../../Downloads/Project/Emertxe project/Washing_Machine.X/washiing_machine_functi
      +                          on_def.c: 99:         reset_flag = 0xFF;
  3534     0103  30FF               	movlw	255
  3535     0104  1283               	bcf	3,5	;RP0=0, select bank0
  3536     0105  1303               	bcf	3,6	;RP1=0, select bank0
  3537     0106  00EE               	movwf	_reset_flag
  3538     0107                     l4097:
  3539                           
  3540                           ;../../../../Downloads/Project/Emertxe project/Washing_Machine.X/washiing_machine_functi
      +                          on_def.c: 101:         _delay((unsigned long)((2000)*(20000000/4000.0)));
  3541     0107  3033               	movlw	51
  3542     0108  1283               	bcf	3,5	;RP0=0, select bank0
  3543     0109  1303               	bcf	3,6	;RP1=0, select bank0
  3544     010A  00DA               	movwf	??_run_program+2
  3545     010B  30BB               	movlw	187
  3546     010C  00D9               	movwf	??_run_program+1
  3547     010D  30DF               	movlw	223
  3548     010E  00D8               	movwf	??_run_program
  3549     010F                     u5677:
  3550     010F  0BD8               	decfsz	??_run_program,f
  3551     0110  290F               	goto	u5677
  3552     0111  0BD9               	decfsz	??_run_program+1,f
  3553     0112  290F               	goto	u5677
  3554     0113  0BDA               	decfsz	??_run_program+2,f
  3555     0114  290F               	goto	u5677
  3556     0115                     l4099:
  3557                           
  3558                           ;../../../../Downloads/Project/Emertxe project/Washing_Machine.X/washiing_machine_functi
      +                          on_def.c: 102:         clear_screen();
  3559     0115  160A  118A  2454  120A  118A  	fcall	_clear_screen
  3560     011A                     l4101:
  3561                           
  3562                           ;../../../../Downloads/Project/Emertxe project/Washing_Machine.X/washiing_machine_functi
      +                          on_def.c: 103:         clcd_print("Function:", (0x80 + 0));
  3563     011A  30EF               	movlw	low (STR_30| (0+32768))
  3564     011B  1283               	bcf	3,5	;RP0=0, select bank0
  3565     011C  1303               	bcf	3,6	;RP1=0, select bank0
  3566     011D  00A0               	movwf	clcd_print@str
  3567     011E  3090               	movlw	high (STR_30| (0+32768))
  3568     011F  00A1               	movwf	clcd_print@str+1
  3569     0120  3080               	movlw	128
  3570     0121  00A2               	movwf	clcd_print@addr
  3571     0122  160A  118A  2532  120A  118A  	fcall	_clcd_print
  3572     0127                     l4103:
  3573                           
  3574                           ;../../../../Downloads/Project/Emertxe project/Washing_Machine.X/washiing_machine_functi
      +                          on_def.c: 104:         clcd_print("TIME", (0xC0 + 0));
  3575     0127  3074               	movlw	low (STR_31| (0+32768))
  3576     0128  1283               	bcf	3,5	;RP0=0, select bank0
  3577     0129  1303               	bcf	3,6	;RP1=0, select bank0
  3578     012A  00A0               	movwf	clcd_print@str
  3579     012B  3091               	movlw	high (STR_31| (0+32768))
  3580     012C  00A1               	movwf	clcd_print@str+1
  3581     012D  30C0               	movlw	192
  3582     012E  00A2               	movwf	clcd_print@addr
  3583     012F  160A  118A  2532  120A  118A  	fcall	_clcd_print
  3584     0134                     l4105:
  3585                           
  3586                           ;../../../../Downloads/Project/Emertxe project/Washing_Machine.X/washiing_machine_functi
      +                          on_def.c: 105:         clcd_print("5:START 6:PAUSE", (0x90 + 0));
  3587     0134  3046               	movlw	low (STR_32| (0+32768))
  3588     0135  1283               	bcf	3,5	;RP0=0, select bank0
  3589     0136  1303               	bcf	3,6	;RP1=0, select bank0
  3590     0137  00A0               	movwf	clcd_print@str
  3591     0138  3090               	movlw	high (STR_32| (0+32768))
  3592     0139  00A1               	movwf	clcd_print@str+1
  3593     013A  3090               	movlw	144
  3594     013B  00A2               	movwf	clcd_print@addr
  3595     013C  160A  118A  2532  120A  118A  	fcall	_clcd_print
  3596     0141                     l4107:
  3597                           
  3598                           ;../../../../Downloads/Project/Emertxe project/Washing_Machine.X/washiing_machine_functi
      +                          on_def.c: 107:         total_time = time = min * 60 + sec;
  3599     0141  1283               	bcf	3,5	;RP0=0, select bank0
  3600     0142  1303               	bcf	3,6	;RP1=0, select bank0
  3601     0143  0869               	movf	_min,w
  3602     0144  00D8               	movwf	??_run_program
  3603     0145  01D9               	clrf	??_run_program+1
  3604     0146  0858               	movf	??_run_program,w
  3605     0147  00F2               	movwf	___wmul@multiplier
  3606     0148  0859               	movf	??_run_program+1,w
  3607     0149  00F3               	movwf	___wmul@multiplier+1
  3608     014A  303C               	movlw	60
  3609     014B  00F4               	movwf	___wmul@multiplicand
  3610     014C  3000               	movlw	0
  3611     014D  00F5               	movwf	___wmul@multiplicand+1
  3612     014E  160A  118A  250D  120A  118A  	fcall	___wmul
  3613     0153  1283               	bcf	3,5	;RP0=0, select bank0
  3614     0154  1303               	bcf	3,6	;RP1=0, select bank0
  3615     0155  086A               	movf	_sec,w
  3616     0156  0772               	addwf	?___wmul,w
  3617     0157  00DF               	movwf	_time
  3618     0158  3000               	movlw	0
  3619     0159  1803               	skipnc
  3620     015A  3001               	movlw	1
  3621     015B  0773               	addwf	?___wmul+1,w
  3622     015C  00E0               	movwf	_time+1
  3623     015D  0860               	movf	_time+1,w
  3624     015E  00E8               	movwf	_total_time+1
  3625     015F  085F               	movf	_time,w
  3626     0160  00E7               	movwf	_total_time
  3627     0161                     l4109:
  3628                           
  3629                           ;../../../../Downloads/Project/Emertxe project/Washing_Machine.X/washiing_machine_functi
      +                          on_def.c: 108:         wash_time = (int) total_time * 0.42;
  3630     0161  0867               	movf	_total_time,w
  3631     0162  00F2               	movwf	___xxtofl@val
  3632     0163  0868               	movf	_total_time+1,w
  3633     0164  00F3               	movwf	___xxtofl@val+1
  3634     0165  3000               	movlw	0
  3635     0166  1BF3               	btfsc	___xxtofl@val+1,7
  3636     0167  30FF               	movlw	255
  3637     0168  00F4               	movwf	___xxtofl@val+2
  3638     0169  00F5               	movwf	___xxtofl@val+3
  3639     016A  3001               	movlw	1
  3640     016B  120A  118A  2743  120A  118A  	fcall	___xxtofl
  3641     0170  0875               	movf	?___xxtofl+3,w
  3642     0171  1283               	bcf	3,5	;RP0=0, select bank0
  3643     0172  1303               	bcf	3,6	;RP1=0, select bank0
  3644     0173  00B1               	movwf	___flmul@a+3
  3645     0174  0874               	movf	?___xxtofl+2,w
  3646     0175  00B0               	movwf	___flmul@a+2
  3647     0176  0873               	movf	?___xxtofl+1,w
  3648     0177  00AF               	movwf	___flmul@a+1
  3649     0178  0872               	movf	?___xxtofl,w
  3650     0179  00AE               	movwf	___flmul@a
  3651     017A  303E               	movlw	62
  3652     017B  00AD               	movwf	___flmul@b+3
  3653     017C  30D7               	movlw	215
  3654     017D  00AC               	movwf	___flmul@b+2
  3655     017E  300A               	movlw	10
  3656     017F  00AB               	movwf	___flmul@b+1
  3657     0180  303D               	movlw	61
  3658     0181  00AA               	movwf	___flmul@b
  3659     0182  120A  118A  2401  120A  118A  	fcall	___flmul
  3660     0187  1283               	bcf	3,5	;RP0=0, select bank0
  3661     0188  1303               	bcf	3,6	;RP1=0, select bank0
  3662     0189  082D               	movf	?___flmul+3,w
  3663     018A  00C7               	movwf	___fltol@f1+3
  3664     018B  082C               	movf	?___flmul+2,w
  3665     018C  00C6               	movwf	___fltol@f1+2
  3666     018D  082B               	movf	?___flmul+1,w
  3667     018E  00C5               	movwf	___fltol@f1+1
  3668     018F  082A               	movf	?___flmul,w
  3669     0190  00C4               	movwf	___fltol@f1
  3670     0191  120A  158A  2031  120A  118A  	fcall	___fltol
  3671     0196  1283               	bcf	3,5	;RP0=0, select bank0
  3672     0197  1303               	bcf	3,6	;RP1=0, select bank0
  3673     0198  0845               	movf	?___fltol+1,w
  3674     0199  00E6               	movwf	_wash_time+1
  3675     019A  0844               	movf	?___fltol,w
  3676     019B  00E5               	movwf	_wash_time
  3677     019C                     l4111:
  3678                           
  3679                           ;../../../../Downloads/Project/Emertxe project/Washing_Machine.X/washiing_machine_functi
      +                          on_def.c: 109:         rinse_time = (int) total_time * 0.12;
  3680     019C  0867               	movf	_total_time,w
  3681     019D  00F2               	movwf	___xxtofl@val
  3682     019E  0868               	movf	_total_time+1,w
  3683     019F  00F3               	movwf	___xxtofl@val+1
  3684     01A0  3000               	movlw	0
  3685     01A1  1BF3               	btfsc	___xxtofl@val+1,7
  3686     01A2  30FF               	movlw	255
  3687     01A3  00F4               	movwf	___xxtofl@val+2
  3688     01A4  00F5               	movwf	___xxtofl@val+3
  3689     01A5  3001               	movlw	1
  3690     01A6  120A  118A  2743  120A  118A  	fcall	___xxtofl
  3691     01AB  0875               	movf	?___xxtofl+3,w
  3692     01AC  1283               	bcf	3,5	;RP0=0, select bank0
  3693     01AD  1303               	bcf	3,6	;RP1=0, select bank0
  3694     01AE  00B1               	movwf	___flmul@a+3
  3695     01AF  0874               	movf	?___xxtofl+2,w
  3696     01B0  00B0               	movwf	___flmul@a+2
  3697     01B1  0873               	movf	?___xxtofl+1,w
  3698     01B2  00AF               	movwf	___flmul@a+1
  3699     01B3  0872               	movf	?___xxtofl,w
  3700     01B4  00AE               	movwf	___flmul@a
  3701     01B5  303D               	movlw	61
  3702     01B6  00AD               	movwf	___flmul@b+3
  3703     01B7  30F5               	movlw	245
  3704     01B8  00AC               	movwf	___flmul@b+2
  3705     01B9  30C2               	movlw	194
  3706     01BA  00AB               	movwf	___flmul@b+1
  3707     01BB  308F               	movlw	143
  3708     01BC  00AA               	movwf	___flmul@b
  3709     01BD  120A  118A  2401  120A  118A  	fcall	___flmul
  3710     01C2  1283               	bcf	3,5	;RP0=0, select bank0
  3711     01C3  1303               	bcf	3,6	;RP1=0, select bank0
  3712     01C4  082D               	movf	?___flmul+3,w
  3713     01C5  00C7               	movwf	___fltol@f1+3
  3714     01C6  082C               	movf	?___flmul+2,w
  3715     01C7  00C6               	movwf	___fltol@f1+2
  3716     01C8  082B               	movf	?___flmul+1,w
  3717     01C9  00C5               	movwf	___fltol@f1+1
  3718     01CA  082A               	movf	?___flmul,w
  3719     01CB  00C4               	movwf	___fltol@f1
  3720     01CC  120A  158A  2031  120A  118A  	fcall	___fltol
  3721     01D1  1283               	bcf	3,5	;RP0=0, select bank0
  3722     01D2  1303               	bcf	3,6	;RP1=0, select bank0
  3723     01D3  0845               	movf	?___fltol+1,w
  3724     01D4  00E4               	movwf	_rinse_time+1
  3725     01D5  0844               	movf	?___fltol,w
  3726     01D6  00E3               	movwf	_rinse_time
  3727     01D7                     l4113:
  3728                           
  3729                           ;../../../../Downloads/Project/Emertxe project/Washing_Machine.X/washiing_machine_functi
      +                          on_def.c: 110:         spin_time = (int) total_time * 0.43;
  3730     01D7  0867               	movf	_total_time,w
  3731     01D8  00F2               	movwf	___xxtofl@val
  3732     01D9  0868               	movf	_total_time+1,w
  3733     01DA  00F3               	movwf	___xxtofl@val+1
  3734     01DB  3000               	movlw	0
  3735     01DC  1BF3               	btfsc	___xxtofl@val+1,7
  3736     01DD  30FF               	movlw	255
  3737     01DE  00F4               	movwf	___xxtofl@val+2
  3738     01DF  00F5               	movwf	___xxtofl@val+3
  3739     01E0  3001               	movlw	1
  3740     01E1  120A  118A  2743  120A  118A  	fcall	___xxtofl
  3741     01E6  0875               	movf	?___xxtofl+3,w
  3742     01E7  1283               	bcf	3,5	;RP0=0, select bank0
  3743     01E8  1303               	bcf	3,6	;RP1=0, select bank0
  3744     01E9  00B1               	movwf	___flmul@a+3
  3745     01EA  0874               	movf	?___xxtofl+2,w
  3746     01EB  00B0               	movwf	___flmul@a+2
  3747     01EC  0873               	movf	?___xxtofl+1,w
  3748     01ED  00AF               	movwf	___flmul@a+1
  3749     01EE  0872               	movf	?___xxtofl,w
  3750     01EF  00AE               	movwf	___flmul@a
  3751     01F0  303E               	movlw	62
  3752     01F1  00AD               	movwf	___flmul@b+3
  3753     01F2  30DC               	movlw	220
  3754     01F3  00AC               	movwf	___flmul@b+2
  3755     01F4  3028               	movlw	40
  3756     01F5  00AB               	movwf	___flmul@b+1
  3757     01F6  30F6               	movlw	246
  3758     01F7  00AA               	movwf	___flmul@b
  3759     01F8  120A  118A  2401  120A  118A  	fcall	___flmul
  3760     01FD  1283               	bcf	3,5	;RP0=0, select bank0
  3761     01FE  1303               	bcf	3,6	;RP1=0, select bank0
  3762     01FF  082D               	movf	?___flmul+3,w
  3763     0200  00C7               	movwf	___fltol@f1+3
  3764     0201  082C               	movf	?___flmul+2,w
  3765     0202  00C6               	movwf	___fltol@f1+2
  3766     0203  082B               	movf	?___flmul+1,w
  3767     0204  00C5               	movwf	___fltol@f1+1
  3768     0205  082A               	movf	?___flmul,w
  3769     0206  00C4               	movwf	___fltol@f1
  3770     0207  120A  158A  2031  120A  118A  	fcall	___fltol
  3771     020C  1283               	bcf	3,5	;RP0=0, select bank0
  3772     020D  1303               	bcf	3,6	;RP1=0, select bank0
  3773     020E  0845               	movf	?___fltol+1,w
  3774     020F  00E2               	movwf	_spin_time+1
  3775     0210  0844               	movf	?___fltol,w
  3776     0211  00E1               	movwf	_spin_time
  3777     0212                     l4115:
  3778                           
  3779                           ;../../../../Downloads/Project/Emertxe project/Washing_Machine.X/washiing_machine_functi
      +                          on_def.c: 111:         TMR2ON = 1;
  3780     0212  1512               	bsf	18,2	;volatile
  3781     0213                     l4117:
  3782                           
  3783                           ;../../../../Downloads/Project/Emertxe project/Washing_Machine.X/washiing_machine_functi
      +                          on_def.c: 113:         RC2=1;
  3784     0213  1507               	bsf	7,2	;volatile
  3785     0214                     l4119:
  3786                           
  3787                           ;../../../../Downloads/Project/Emertxe project/Washing_Machine.X/washiing_machine_functi
      +                          on_def.c: 115:     if(key == 0x1F){
  3788     0214  301F               	movlw	31
  3789     0215  065E               	xorwf	run_program@key,w
  3790     0216  1D03               	btfss	3,2
  3791     0217  2A19               	goto	u5441
  3792     0218  2A1A               	goto	u5440
  3793     0219                     u5441:
  3794     0219  2A1E               	goto	l4123
  3795     021A                     u5440:
  3796     021A                     l4121:
  3797                           
  3798                           ;../../../../Downloads/Project/Emertxe project/Washing_Machine.X/washiing_machine_functi
      +                          on_def.c: 116:       TMR2ON = 0;
  3799     021A  1112               	bcf	18,2	;volatile
  3800                           
  3801                           ;../../../../Downloads/Project/Emertxe project/Washing_Machine.X/washiing_machine_functi
      +                          on_def.c: 117:         RC2=0;
  3802     021B  1107               	bcf	7,2	;volatile
  3803                           
  3804                           ;../../../../Downloads/Project/Emertxe project/Washing_Machine.X/washiing_machine_functi
      +                          on_def.c: 118:         operational_mode = 0x44;
  3805     021C  3044               	movlw	68
  3806     021D  00EF               	movwf	_operational_mode
  3807     021E                     l4123:
  3808                           
  3809                           ;../../../../Downloads/Project/Emertxe project/Washing_Machine.X/washiing_machine_functi
      +                          on_def.c: 120:     total_time = min * 60 + sec;
  3810     021E  0869               	movf	_min,w
  3811     021F  00D8               	movwf	??_run_program
  3812     0220  01D9               	clrf	??_run_program+1
  3813     0221  0858               	movf	??_run_program,w
  3814     0222  00F2               	movwf	___wmul@multiplier
  3815     0223  0859               	movf	??_run_program+1,w
  3816     0224  00F3               	movwf	___wmul@multiplier+1
  3817     0225  303C               	movlw	60
  3818     0226  00F4               	movwf	___wmul@multiplicand
  3819     0227  3000               	movlw	0
  3820     0228  00F5               	movwf	___wmul@multiplicand+1
  3821     0229  160A  118A  250D  120A  118A  	fcall	___wmul
  3822     022E  1283               	bcf	3,5	;RP0=0, select bank0
  3823     022F  1303               	bcf	3,6	;RP1=0, select bank0
  3824     0230  086A               	movf	_sec,w
  3825     0231  0772               	addwf	?___wmul,w
  3826     0232  00E7               	movwf	_total_time
  3827     0233  3000               	movlw	0
  3828     0234  1803               	skipnc
  3829     0235  3001               	movlw	1
  3830     0236  0773               	addwf	?___wmul+1,w
  3831     0237  00E8               	movwf	_total_time+1
  3832     0238                     l4125:
  3833                           
  3834                           ;../../../../Downloads/Project/Emertxe project/Washing_Machine.X/washiing_machine_functi
      +                          on_def.c: 122:     if (program_no <= 7) {
  3835     0238  3008               	movlw	8
  3836     0239  027A               	subwf	_program_no,w
  3837     023A  1803               	skipnc
  3838     023B  2A3D               	goto	u5451
  3839     023C  2A3E               	goto	u5450
  3840     023D                     u5451:
  3841     023D  2A95               	goto	l4137
  3842     023E                     u5450:
  3843     023E                     l4127:
  3844                           
  3845                           ;../../../../Downloads/Project/Emertxe project/Washing_Machine.X/washiing_machine_functi
      +                          on_def.c: 123:         if (total_time >= (time - wash_time)) {
  3846     023E  0865               	movf	_wash_time,w
  3847     023F  025F               	subwf	_time,w
  3848     0240  00D8               	movwf	??_run_program
  3849     0241  0866               	movf	_wash_time+1,w
  3850     0242  1C03               	skipc
  3851     0243  0A66               	incf	_wash_time+1,w
  3852     0244  0260               	subwf	_time+1,w
  3853     0245  00D9               	movwf	??_run_program+1
  3854     0246  0859               	movf	??_run_program+1,w
  3855     0247  0268               	subwf	_total_time+1,w
  3856     0248  1D03               	skipz
  3857     0249  2A4C               	goto	u5465
  3858     024A  0858               	movf	??_run_program,w
  3859     024B  0267               	subwf	_total_time,w
  3860     024C                     u5465:
  3861     024C  1C03               	skipc
  3862     024D  2A4F               	goto	u5461
  3863     024E  2A50               	goto	u5460
  3864     024F                     u5461:
  3865     024F  2A5C               	goto	l4131
  3866     0250                     u5460:
  3867     0250                     l4129:
  3868                           
  3869                           ;../../../../Downloads/Project/Emertxe project/Washing_Machine.X/washiing_machine_functi
      +                          on_def.c: 124:             clcd_print("Wash", (0x80 + 10));
  3870     0250  3083               	movlw	low (STR_33| (0+32768))
  3871     0251  00A0               	movwf	clcd_print@str
  3872     0252  3091               	movlw	high (STR_33| (0+32768))
  3873     0253  00A1               	movwf	clcd_print@str+1
  3874     0254  308A               	movlw	138
  3875     0255  00A2               	movwf	clcd_print@addr
  3876     0256  160A  118A  2532  120A  118A  	fcall	_clcd_print
  3877                           
  3878                           ;../../../../Downloads/Project/Emertxe project/Washing_Machine.X/washiing_machine_functi
      +                          on_def.c: 125:         } else if (total_time >= (time - wash_time - spin_time)) {
  3879     025B  2B45               	goto	l4151
  3880     025C                     l4131:
  3881     025C  0965               	comf	_wash_time,w
  3882     025D  00D8               	movwf	??_run_program
  3883     025E  0966               	comf	_wash_time+1,w
  3884     025F  00D9               	movwf	??_run_program+1
  3885     0260  0AD8               	incf	??_run_program,f
  3886     0261  1903               	skipnz
  3887     0262  0AD9               	incf	??_run_program+1,f
  3888     0263  0861               	movf	_spin_time,w
  3889     0264  0258               	subwf	??_run_program,w
  3890     0265  00DA               	movwf	??_run_program+2
  3891     0266  0862               	movf	_spin_time+1,w
  3892     0267  1C03               	skipc
  3893     0268  0A62               	incf	_spin_time+1,w
  3894     0269  0259               	subwf	??_run_program+1,w
  3895     026A  00DB               	movwf	??_run_program+3
  3896     026B  085F               	movf	_time,w
  3897     026C  075A               	addwf	??_run_program+2,w
  3898     026D  00DC               	movwf	??_run_program+4
  3899     026E  0860               	movf	_time+1,w
  3900     026F  1803               	skipnc
  3901     0270  0A60               	incf	_time+1,w
  3902     0271  075B               	addwf	??_run_program+3,w
  3903     0272  00DD               	movwf	??_run_program+5
  3904     0273  085D               	movf	??_run_program+5,w
  3905     0274  0268               	subwf	_total_time+1,w
  3906     0275  1D03               	skipz
  3907     0276  2A79               	goto	u5475
  3908     0277  085C               	movf	??_run_program+4,w
  3909     0278  0267               	subwf	_total_time,w
  3910     0279                     u5475:
  3911     0279  1C03               	skipc
  3912     027A  2A7C               	goto	u5471
  3913     027B  2A7D               	goto	u5470
  3914     027C                     u5471:
  3915     027C  2A89               	goto	l4135
  3916     027D                     u5470:
  3917     027D                     l4133:
  3918                           
  3919                           ;../../../../Downloads/Project/Emertxe project/Washing_Machine.X/washiing_machine_functi
      +                          on_def.c: 126:             clcd_print("Rinse", (0x80 + 10));
  3920     027D  3062               	movlw	low (STR_34| (0+32768))
  3921     027E  00A0               	movwf	clcd_print@str
  3922     027F  3091               	movlw	high (STR_34| (0+32768))
  3923     0280  00A1               	movwf	clcd_print@str+1
  3924     0281  308A               	movlw	138
  3925     0282  00A2               	movwf	clcd_print@addr
  3926     0283  160A  118A  2532  120A  118A  	fcall	_clcd_print
  3927                           
  3928                           ;../../../../Downloads/Project/Emertxe project/Washing_Machine.X/washiing_machine_functi
      +                          on_def.c: 127:         } else {
  3929     0288  2B45               	goto	l4151
  3930     0289                     l4135:
  3931                           
  3932                           ;../../../../Downloads/Project/Emertxe project/Washing_Machine.X/washiing_machine_functi
      +                          on_def.c: 128:             clcd_print("Spin ", (0x80 + 10));
  3933     0289  3050               	movlw	low (STR_35| (0+32768))
  3934     028A  00A0               	movwf	clcd_print@str
  3935     028B  3091               	movlw	high (STR_35| (0+32768))
  3936     028C  00A1               	movwf	clcd_print@str+1
  3937     028D  308A               	movlw	138
  3938     028E  00A2               	movwf	clcd_print@addr
  3939     028F  160A  118A  2532  120A  118A  	fcall	_clcd_print
  3940     0294  2B45               	goto	l4151
  3941     0295                     l4137:
  3942     0295  3008               	movlw	8
  3943     0296  067A               	xorwf	_program_no,w
  3944     0297  1D03               	btfss	3,2
  3945     0298  2A9A               	goto	u5481
  3946     0299  2A9B               	goto	u5480
  3947     029A                     u5481:
  3948     029A  2B28               	goto	l4145
  3949     029B                     u5480:
  3950     029B                     l4139:
  3951                           
  3952                           ;../../../../Downloads/Project/Emertxe project/Washing_Machine.X/washiing_machine_functi
      +                          on_def.c: 131:         if (total_time >= (time - (0.40 * time))) {
  3953     029B  0867               	movf	_total_time,w
  3954     029C  00F2               	movwf	___xxtofl@val
  3955     029D  0868               	movf	_total_time+1,w
  3956     029E  00F3               	movwf	___xxtofl@val+1
  3957     029F  01F4               	clrf	___xxtofl@val+2
  3958     02A0  01F5               	clrf	___xxtofl@val+3
  3959     02A1  3000               	movlw	0
  3960     02A2  120A  118A  2743  120A  118A  	fcall	___xxtofl
  3961     02A7  0875               	movf	?___xxtofl+3,w
  3962     02A8  1283               	bcf	3,5	;RP0=0, select bank0
  3963     02A9  1303               	bcf	3,6	;RP1=0, select bank0
  3964     02AA  00CF               	movwf	___flge@ff1+3
  3965     02AB  0874               	movf	?___xxtofl+2,w
  3966     02AC  00CE               	movwf	___flge@ff1+2
  3967     02AD  0873               	movf	?___xxtofl+1,w
  3968     02AE  00CD               	movwf	___flge@ff1+1
  3969     02AF  0872               	movf	?___xxtofl,w
  3970     02B0  00CC               	movwf	___flge@ff1
  3971     02B1  085F               	movf	_time,w
  3972     02B2  00F2               	movwf	___xxtofl@val
  3973     02B3  0860               	movf	_time+1,w
  3974     02B4  00F3               	movwf	___xxtofl@val+1
  3975     02B5  01F4               	clrf	___xxtofl@val+2
  3976     02B6  01F5               	clrf	___xxtofl@val+3
  3977     02B7  3000               	movlw	0
  3978     02B8  120A  118A  2743  120A  118A  	fcall	___xxtofl
  3979     02BD  0875               	movf	?___xxtofl+3,w
  3980     02BE  1283               	bcf	3,5	;RP0=0, select bank0
  3981     02BF  1303               	bcf	3,6	;RP1=0, select bank0
  3982     02C0  00CB               	movwf	___flsub@b+3
  3983     02C1  0874               	movf	?___xxtofl+2,w
  3984     02C2  00CA               	movwf	___flsub@b+2
  3985     02C3  0873               	movf	?___xxtofl+1,w
  3986     02C4  00C9               	movwf	___flsub@b+1
  3987     02C5  0872               	movf	?___xxtofl,w
  3988     02C6  00C8               	movwf	___flsub@b
  3989     02C7  085F               	movf	_time,w
  3990     02C8  00F2               	movwf	___xxtofl@val
  3991     02C9  0860               	movf	_time+1,w
  3992     02CA  00F3               	movwf	___xxtofl@val+1
  3993     02CB  01F4               	clrf	___xxtofl@val+2
  3994     02CC  01F5               	clrf	___xxtofl@val+3
  3995     02CD  3000               	movlw	0
  3996     02CE  120A  118A  2743  120A  118A  	fcall	___xxtofl
  3997     02D3  0875               	movf	?___xxtofl+3,w
  3998     02D4  1283               	bcf	3,5	;RP0=0, select bank0
  3999     02D5  1303               	bcf	3,6	;RP1=0, select bank0
  4000     02D6  00B1               	movwf	___flmul@a+3
  4001     02D7  0874               	movf	?___xxtofl+2,w
  4002     02D8  00B0               	movwf	___flmul@a+2
  4003     02D9  0873               	movf	?___xxtofl+1,w
  4004     02DA  00AF               	movwf	___flmul@a+1
  4005     02DB  0872               	movf	?___xxtofl,w
  4006     02DC  00AE               	movwf	___flmul@a
  4007     02DD  303E               	movlw	62
  4008     02DE  00AD               	movwf	___flmul@b+3
  4009     02DF  30CC               	movlw	204
  4010     02E0  00AC               	movwf	___flmul@b+2
  4011     02E1  30CC               	movlw	204
  4012     02E2  00AB               	movwf	___flmul@b+1
  4013     02E3  30CD               	movlw	205
  4014     02E4  00AA               	movwf	___flmul@b
  4015     02E5  120A  118A  2401  120A  118A  	fcall	___flmul
  4016     02EA  1283               	bcf	3,5	;RP0=0, select bank0
  4017     02EB  1303               	bcf	3,6	;RP1=0, select bank0
  4018     02EC  082D               	movf	?___flmul+3,w
  4019     02ED  00C7               	movwf	___flsub@a+3
  4020     02EE  082C               	movf	?___flmul+2,w
  4021     02EF  00C6               	movwf	___flsub@a+2
  4022     02F0  082B               	movf	?___flmul+1,w
  4023     02F1  00C5               	movwf	___flsub@a+1
  4024     02F2  082A               	movf	?___flmul,w
  4025     02F3  00C4               	movwf	___flsub@a
  4026     02F4  160A  118A  24E9  120A  118A  	fcall	___flsub
  4027     02F9  1283               	bcf	3,5	;RP0=0, select bank0
  4028     02FA  1303               	bcf	3,6	;RP1=0, select bank0
  4029     02FB  0847               	movf	?___flsub+3,w
  4030     02FC  00D3               	movwf	___flge@ff2+3
  4031     02FD  0846               	movf	?___flsub+2,w
  4032     02FE  00D2               	movwf	___flge@ff2+2
  4033     02FF  0845               	movf	?___flsub+1,w
  4034     0300  00D1               	movwf	___flge@ff2+1
  4035     0301  0844               	movf	?___flsub,w
  4036     0302  00D0               	movwf	___flge@ff2
  4037     0303  120A  158A  20A7  120A  118A  	fcall	___flge
  4038     0308  1C03               	btfss	3,0
  4039     0309  2B0B               	goto	u5491
  4040     030A  2B0C               	goto	u5490
  4041     030B                     u5491:
  4042     030B  2B1A               	goto	l4143
  4043     030C                     u5490:
  4044     030C                     l4141:
  4045                           
  4046                           ;../../../../Downloads/Project/Emertxe project/Washing_Machine.X/washiing_machine_functi
      +                          on_def.c: 132:             clcd_print("Rinse ", (0x80 + 10));
  4047     030C  303B               	movlw	low (STR_36| (0+32768))
  4048     030D  1283               	bcf	3,5	;RP0=0, select bank0
  4049     030E  1303               	bcf	3,6	;RP1=0, select bank0
  4050     030F  00A0               	movwf	clcd_print@str
  4051     0310  3091               	movlw	high (STR_36| (0+32768))
  4052     0311  00A1               	movwf	clcd_print@str+1
  4053     0312  308A               	movlw	138
  4054     0313  00A2               	movwf	clcd_print@addr
  4055     0314  160A  118A  2532  120A  118A  	fcall	_clcd_print
  4056                           
  4057                           ;../../../../Downloads/Project/Emertxe project/Washing_Machine.X/washiing_machine_functi
      +                          on_def.c: 133:         } else {
  4058     0319  2B45               	goto	l4151
  4059     031A                     l4143:
  4060                           
  4061                           ;../../../../Downloads/Project/Emertxe project/Washing_Machine.X/washiing_machine_functi
      +                          on_def.c: 134:             clcd_print("Spin ", (0x80 + 10));
  4062     031A  3050               	movlw	low (STR_35| (0+32768))
  4063     031B  1283               	bcf	3,5	;RP0=0, select bank0
  4064     031C  1303               	bcf	3,6	;RP1=0, select bank0
  4065     031D  00A0               	movwf	clcd_print@str
  4066     031E  3091               	movlw	high (STR_35| (0+32768))
  4067     031F  00A1               	movwf	clcd_print@str+1
  4068     0320  308A               	movlw	138
  4069     0321  00A2               	movwf	clcd_print@addr
  4070     0322  160A  118A  2532  120A  118A  	fcall	_clcd_print
  4071     0327  2B45               	goto	l4151
  4072     0328                     l4145:
  4073     0328  3009               	movlw	9
  4074     0329  067A               	xorwf	_program_no,w
  4075     032A  1D03               	btfss	3,2
  4076     032B  2B2D               	goto	u5501
  4077     032C  2B2E               	goto	u5500
  4078     032D                     u5501:
  4079     032D  2B3A               	goto	l4149
  4080     032E                     u5500:
  4081     032E                     l4147:
  4082                           
  4083                           ;../../../../Downloads/Project/Emertxe project/Washing_Machine.X/washiing_machine_functi
      +                          on_def.c: 137:         clcd_print("Spin", (0x80 + 10));
  4084     032E  3088               	movlw	low (STR_38| (0+32768))
  4085     032F  00A0               	movwf	clcd_print@str
  4086     0330  3091               	movlw	high (STR_38| (0+32768))
  4087     0331  00A1               	movwf	clcd_print@str+1
  4088     0332  308A               	movlw	138
  4089     0333  00A2               	movwf	clcd_print@addr
  4090     0334  160A  118A  2532  120A  118A  	fcall	_clcd_print
  4091                           
  4092                           ;../../../../Downloads/Project/Emertxe project/Washing_Machine.X/washiing_machine_functi
      +                          on_def.c: 138:     } else {
  4093     0339  2B45               	goto	l4151
  4094     033A                     l4149:
  4095                           
  4096                           ;../../../../Downloads/Project/Emertxe project/Washing_Machine.X/washiing_machine_functi
      +                          on_def.c: 139:         clcd_print("wash", (0x80 + 0));
  4097     033A  30C9               	movlw	low ((STR_11+6)| (0+32768))
  4098     033B  00A0               	movwf	clcd_print@str
  4099     033C  3090               	movlw	high ((STR_11+6)| (0+32768))
  4100     033D  00A1               	movwf	clcd_print@str+1
  4101     033E  3080               	movlw	128
  4102     033F  00A2               	movwf	clcd_print@addr
  4103     0340  160A  118A  2532  120A  118A  	fcall	_clcd_print
  4104     0345                     l4151:
  4105                           
  4106                           ;../../../../Downloads/Project/Emertxe project/Washing_Machine.X/washiing_machine_functi
      +                          on_def.c: 142:     clcd_putch(min / 10 + '0', (0xC0 + 6));
  4107     0345  30C6               	movlw	198
  4108     0346  00F8               	movwf	clcd_putch@addr
  4109     0347  300A               	movlw	10
  4110     0348  00F2               	movwf	___awdiv@divisor
  4111     0349  3000               	movlw	0
  4112     034A  00F3               	movwf	___awdiv@divisor+1
  4113     034B  1283               	bcf	3,5	;RP0=0, select bank0
  4114     034C  1303               	bcf	3,6	;RP1=0, select bank0
  4115     034D  0869               	movf	_min,w
  4116     034E  00D8               	movwf	??_run_program
  4117     034F  01D9               	clrf	??_run_program+1
  4118     0350  0858               	movf	??_run_program,w
  4119     0351  00F4               	movwf	___awdiv@dividend
  4120     0352  0859               	movf	??_run_program+1,w
  4121     0353  00F5               	movwf	___awdiv@dividend+1
  4122     0354  160A  118A  26BE  120A  118A  	fcall	___awdiv
  4123     0359  0872               	movf	?___awdiv,w
  4124     035A  3E30               	addlw	48
  4125     035B  160A  118A  2478  120A  118A  	fcall	_clcd_putch
  4126     0360                     l4153:
  4127                           
  4128                           ;../../../../Downloads/Project/Emertxe project/Washing_Machine.X/washiing_machine_functi
      +                          on_def.c: 143:     clcd_putch(min % 10 + '0', (0xC0 + 7));
  4129     0360  30C7               	movlw	199
  4130     0361  00F8               	movwf	clcd_putch@addr
  4131     0362  300A               	movlw	10
  4132     0363  00F2               	movwf	___awmod@divisor
  4133     0364  3000               	movlw	0
  4134     0365  00F3               	movwf	___awmod@divisor+1
  4135     0366  1283               	bcf	3,5	;RP0=0, select bank0
  4136     0367  1303               	bcf	3,6	;RP1=0, select bank0
  4137     0368  0869               	movf	_min,w
  4138     0369  00D8               	movwf	??_run_program
  4139     036A  01D9               	clrf	??_run_program+1
  4140     036B  0858               	movf	??_run_program,w
  4141     036C  00F4               	movwf	___awmod@dividend
  4142     036D  0859               	movf	??_run_program+1,w
  4143     036E  00F5               	movwf	___awmod@dividend+1
  4144     036F  160A  118A  2609  120A  118A  	fcall	___awmod
  4145     0374  0872               	movf	?___awmod,w
  4146     0375  3E30               	addlw	48
  4147     0376  160A  118A  2478  120A  118A  	fcall	_clcd_putch
  4148     037B                     l4155:
  4149                           
  4150                           ;../../../../Downloads/Project/Emertxe project/Washing_Machine.X/washiing_machine_functi
      +                          on_def.c: 144:     clcd_putch(':', (0xC0 + 8));
  4151     037B  30C8               	movlw	200
  4152     037C  00F8               	movwf	clcd_putch@addr
  4153     037D  303A               	movlw	58
  4154     037E  160A  118A  2478  120A  118A  	fcall	_clcd_putch
  4155     0383                     l4157:
  4156                           
  4157                           ;../../../../Downloads/Project/Emertxe project/Washing_Machine.X/washiing_machine_functi
      +                          on_def.c: 145:     clcd_putch(sec / 10 + '0', (0xC0 + 9));
  4158     0383  30C9               	movlw	201
  4159     0384  00F8               	movwf	clcd_putch@addr
  4160     0385  300A               	movlw	10
  4161     0386  00F2               	movwf	___awdiv@divisor
  4162     0387  3000               	movlw	0
  4163     0388  00F3               	movwf	___awdiv@divisor+1
  4164     0389  1283               	bcf	3,5	;RP0=0, select bank0
  4165     038A  1303               	bcf	3,6	;RP1=0, select bank0
  4166     038B  086A               	movf	_sec,w
  4167     038C  00D8               	movwf	??_run_program
  4168     038D  01D9               	clrf	??_run_program+1
  4169     038E  0858               	movf	??_run_program,w
  4170     038F  00F4               	movwf	___awdiv@dividend
  4171     0390  0859               	movf	??_run_program+1,w
  4172     0391  00F5               	movwf	___awdiv@dividend+1
  4173     0392  160A  118A  26BE  120A  118A  	fcall	___awdiv
  4174     0397  0872               	movf	?___awdiv,w
  4175     0398  3E30               	addlw	48
  4176     0399  160A  118A  2478  120A  118A  	fcall	_clcd_putch
  4177     039E                     l4159:
  4178                           
  4179                           ;../../../../Downloads/Project/Emertxe project/Washing_Machine.X/washiing_machine_functi
      +                          on_def.c: 146:     clcd_putch(sec % 10 + '0', (0xC0 + 10));
  4180     039E  30CA               	movlw	202
  4181     039F  00F8               	movwf	clcd_putch@addr
  4182     03A0  300A               	movlw	10
  4183     03A1  00F2               	movwf	___awmod@divisor
  4184     03A2  3000               	movlw	0
  4185     03A3  00F3               	movwf	___awmod@divisor+1
  4186     03A4  1283               	bcf	3,5	;RP0=0, select bank0
  4187     03A5  1303               	bcf	3,6	;RP1=0, select bank0
  4188     03A6  086A               	movf	_sec,w
  4189     03A7  00D8               	movwf	??_run_program
  4190     03A8  01D9               	clrf	??_run_program+1
  4191     03A9  0858               	movf	??_run_program,w
  4192     03AA  00F4               	movwf	___awmod@dividend
  4193     03AB  0859               	movf	??_run_program+1,w
  4194     03AC  00F5               	movwf	___awmod@dividend+1
  4195     03AD  160A  118A  2609  120A  118A  	fcall	___awmod
  4196     03B2  0872               	movf	?___awmod,w
  4197     03B3  3E30               	addlw	48
  4198     03B4  160A  118A  2478  120A  118A  	fcall	_clcd_putch
  4199     03B9                     l4161:
  4200                           
  4201                           ;../../../../Downloads/Project/Emertxe project/Washing_Machine.X/washiing_machine_functi
      +                          on_def.c: 147:     if (min == 0 && sec == 0) {
  4202     03B9  1283               	bcf	3,5	;RP0=0, select bank0
  4203     03BA  1303               	bcf	3,6	;RP1=0, select bank0
  4204     03BB  0869               	movf	_min,w
  4205     03BC  1D03               	btfss	3,2
  4206     03BD  2BBF               	goto	u5511
  4207     03BE  2BC0               	goto	u5510
  4208     03BF                     u5511:
  4209     03BF  2C00               	goto	l242
  4210     03C0                     u5510:
  4211     03C0                     l4163:
  4212     03C0  086A               	movf	_sec,w
  4213     03C1  1D03               	btfss	3,2
  4214     03C2  2BC4               	goto	u5521
  4215     03C3  2BC5               	goto	u5520
  4216     03C4                     u5521:
  4217     03C4  2C00               	goto	l242
  4218     03C5                     u5520:
  4219     03C5                     l4165:
  4220                           
  4221                           ;../../../../Downloads/Project/Emertxe project/Washing_Machine.X/washiing_machine_functi
      +                          on_def.c: 148:         clear_screen();
  4222     03C5  160A  118A  2454  120A  118A  	fcall	_clear_screen
  4223     03CA                     l4167:
  4224                           
  4225                           ;../../../../Downloads/Project/Emertxe project/Washing_Machine.X/washiing_machine_functi
      +                          on_def.c: 149:         RC2 = 0;
  4226     03CA  1283               	bcf	3,5	;RP0=0, select bank0
  4227     03CB  1303               	bcf	3,6	;RP1=0, select bank0
  4228     03CC  1107               	bcf	7,2	;volatile
  4229     03CD                     l4169:
  4230                           
  4231                           ;../../../../Downloads/Project/Emertxe project/Washing_Machine.X/washiing_machine_functi
      +                          on_def.c: 150:         RC1 = 1;
  4232     03CD  1487               	bsf	7,1	;volatile
  4233     03CE                     l4171:
  4234                           
  4235                           ;../../../../Downloads/Project/Emertxe project/Washing_Machine.X/washiing_machine_functi
      +                          on_def.c: 151:         clcd_print("Program completed", (0x80 + 0));
  4236     03CE  3000               	movlw	low (STR_40| (0+32768))
  4237     03CF  00A0               	movwf	clcd_print@str
  4238     03D0  3090               	movlw	high (STR_40| (0+32768))
  4239     03D1  00A1               	movwf	clcd_print@str+1
  4240     03D2  3080               	movlw	128
  4241     03D3  00A2               	movwf	clcd_print@addr
  4242     03D4  160A  118A  2532  120A  118A  	fcall	_clcd_print
  4243     03D9                     l4173:
  4244                           
  4245                           ;../../../../Downloads/Project/Emertxe project/Washing_Machine.X/washiing_machine_functi
      +                          on_def.c: 152:         clcd_print("Remove cloths", (0xC0 + 0));
  4246     03D9  3076               	movlw	low (STR_41| (0+32768))
  4247     03DA  1283               	bcf	3,5	;RP0=0, select bank0
  4248     03DB  1303               	bcf	3,6	;RP1=0, select bank0
  4249     03DC  00A0               	movwf	clcd_print@str
  4250     03DD  3090               	movlw	high (STR_41| (0+32768))
  4251     03DE  00A1               	movwf	clcd_print@str+1
  4252     03DF  30C0               	movlw	192
  4253     03E0  00A2               	movwf	clcd_print@addr
  4254     03E1  160A  118A  2532  120A  118A  	fcall	_clcd_print
  4255     03E6                     l4175:
  4256                           
  4257                           ;../../../../Downloads/Project/Emertxe project/Washing_Machine.X/washiing_machine_functi
      +                          on_def.c: 153:         _delay((unsigned long)((2000)*(20000000/4000.0)));
  4258     03E6  3033               	movlw	51
  4259     03E7  1283               	bcf	3,5	;RP0=0, select bank0
  4260     03E8  1303               	bcf	3,6	;RP1=0, select bank0
  4261     03E9  00DA               	movwf	??_run_program+2
  4262     03EA  30BB               	movlw	187
  4263     03EB  00D9               	movwf	??_run_program+1
  4264     03EC  30DF               	movlw	223
  4265     03ED  00D8               	movwf	??_run_program
  4266     03EE                     u5687:
  4267     03EE  0BD8               	decfsz	??_run_program,f
  4268     03EF  2BEE               	goto	u5687
  4269     03F0  0BD9               	decfsz	??_run_program+1,f
  4270     03F1  2BEE               	goto	u5687
  4271     03F2  0BDA               	decfsz	??_run_program+2,f
  4272     03F3  2BEE               	goto	u5687
  4273     03F4                     l4177:
  4274                           
  4275                           ;../../../../Downloads/Project/Emertxe project/Washing_Machine.X/washiing_machine_functi
      +                          on_def.c: 154:         RC1 = 0;
  4276     03F4  1283               	bcf	3,5	;RP0=0, select bank0
  4277     03F5  1303               	bcf	3,6	;RP1=0, select bank0
  4278     03F6  1087               	bcf	7,1	;volatile
  4279     03F7                     l4179:
  4280                           
  4281                           ;../../../../Downloads/Project/Emertxe project/Washing_Machine.X/washiing_machine_functi
      +                          on_def.c: 155:         operational_mode = 0x01;
  4282     03F7  3001               	movlw	1
  4283     03F8  00EF               	movwf	_operational_mode
  4284     03F9                     l4181:
  4285                           
  4286                           ;../../../../Downloads/Project/Emertxe project/Washing_Machine.X/washiing_machine_functi
      +                          on_def.c: 156:         reset_flag = 0x11;
  4287     03F9  3011               	movlw	17
  4288     03FA  00EE               	movwf	_reset_flag
  4289     03FB                     l4183:
  4290                           
  4291                           ;../../../../Downloads/Project/Emertxe project/Washing_Machine.X/washiing_machine_functi
      +                          on_def.c: 157:         clear_screen();
  4292     03FB  160A  118A  2454  120A  118A  	fcall	_clear_screen
  4293     0400                     l242:
  4294     0400  0008               	return
  4295     0401                     __end_of_run_program:
  4296                           
  4297                           	psect	text5
  4298     1660                     __ptext5:	
  4299 ;; *************** function _door_status_check *****************
  4300 ;; Defined at:
  4301 ;;		line 360 in file "../../../../Downloads/Project/Emertxe project/Washing_Machine.X/washiing_machine_function_def.c"
  4302 ;; Parameters:    Size  Location     Type
  4303 ;;		None
  4304 ;; Auto vars:     Size  Location     Type
  4305 ;;		None
  4306 ;; Return value:  Size  Location     Type
  4307 ;;                  1    wreg      void 
  4308 ;; Registers used:
  4309 ;;		wreg, fsr0l, fsr0h, status,2, status,0, btemp+1, pclath, cstack
  4310 ;; Tracked objects:
  4311 ;;		On entry : 0/0
  4312 ;;		On exit  : 0/0
  4313 ;;		Unchanged: 0/0
  4314 ;; Data sizes:     COMMON   BANK0   BANK1   BANK3   BANK2
  4315 ;;      Params:         0       0       0       0       0
  4316 ;;      Locals:         0       0       0       0       0
  4317 ;;      Temps:          0       0       0       0       0
  4318 ;;      Totals:         0       0       0       0       0
  4319 ;;Total ram usage:        0 bytes
  4320 ;; Hardware stack levels used: 1
  4321 ;; Hardware stack levels required when called: 3
  4322 ;; This function calls:
  4323 ;;		_clcd_print
  4324 ;;		_clear_screen
  4325 ;; This function is called by:
  4326 ;;		_run_program
  4327 ;; This function uses a non-reentrant model
  4328 ;;
  4329                           
  4330     1660                     _door_status_check:	
  4331                           ;psect for function _door_status_check
  4332                           
  4333     1660                     l3199:	
  4334                           ;incstack = 0
  4335                           ; Regs used in _door_status_check: [wreg-fsr0h+status,2+status,0+btemp+1+pclath+cstack]
  4336                           
  4337                           
  4338                           ;../../../../Downloads/Project/Emertxe project/Washing_Machine.X/washiing_machine_functi
      +                          on_def.c: 361:    if (RB0 == 0)
  4339     1660  1283               	bcf	3,5	;RP0=0, select bank0
  4340     1661  1303               	bcf	3,6	;RP1=0, select bank0
  4341     1662  1806               	btfsc	6,0	;volatile
  4342     1663  2E65               	goto	u4001
  4343     1664  2E66               	goto	u4000
  4344     1665                     u4001:
  4345     1665  2EBD               	goto	l350
  4346     1666                     u4000:
  4347     1666                     l3201:
  4348                           
  4349                           ;../../../../Downloads/Project/Emertxe project/Washing_Machine.X/washiing_machine_functi
      +                          on_def.c: 362: {;../../../../Downloads/Project/Emertxe project/Washing_Machine.X/washiin
      +                          g_machine_function_def.c: 363:     RC2 = 0;
  4350     1666  1107               	bcf	7,2	;volatile
  4351                           
  4352                           ;../../../../Downloads/Project/Emertxe project/Washing_Machine.X/washiing_machine_functi
      +                          on_def.c: 364:     TMR2ON = 0;
  4353     1667  1112               	bcf	18,2	;volatile
  4354                           
  4355                           ;../../../../Downloads/Project/Emertxe project/Washing_Machine.X/washiing_machine_functi
      +                          on_def.c: 365:     RC1 = 1;
  4356     1668  1487               	bsf	7,1	;volatile
  4357     1669                     l3203:
  4358                           
  4359                           ;../../../../Downloads/Project/Emertxe project/Washing_Machine.X/washiing_machine_functi
      +                          on_def.c: 366:     clear_screen();
  4360     1669  160A  118A  2454  160A  118A  	fcall	_clear_screen
  4361     166E                     l3205:
  4362                           
  4363                           ;../../../../Downloads/Project/Emertxe project/Washing_Machine.X/washiing_machine_functi
      +                          on_def.c: 367:     clcd_print("Door is open", (0x80 + 0));
  4364     166E  309E               	movlw	low (STR_42| (0+32768))
  4365     166F  1283               	bcf	3,5	;RP0=0, select bank0
  4366     1670  1303               	bcf	3,6	;RP1=0, select bank0
  4367     1671  00A0               	movwf	clcd_print@str
  4368     1672  3090               	movlw	high (STR_42| (0+32768))
  4369     1673  00A1               	movwf	clcd_print@str+1
  4370     1674  3080               	movlw	128
  4371     1675  00A2               	movwf	clcd_print@addr
  4372     1676  160A  118A  2532  160A  118A  	fcall	_clcd_print
  4373     167B                     l3207:
  4374                           
  4375                           ;../../../../Downloads/Project/Emertxe project/Washing_Machine.X/washiing_machine_functi
      +                          on_def.c: 368:     clcd_print("Please close door", (0xC0 + 0));
  4376     167B  3012               	movlw	low (STR_43| (0+32768))
  4377     167C  1283               	bcf	3,5	;RP0=0, select bank0
  4378     167D  1303               	bcf	3,6	;RP1=0, select bank0
  4379     167E  00A0               	movwf	clcd_print@str
  4380     167F  3090               	movlw	high (STR_43| (0+32768))
  4381     1680  00A1               	movwf	clcd_print@str+1
  4382     1681  30C0               	movlw	192
  4383     1682  00A2               	movwf	clcd_print@addr
  4384     1683  160A  118A  2532  160A  118A  	fcall	_clcd_print
  4385     1688                     l347:	
  4386                           ;../../../../Downloads/Project/Emertxe project/Washing_Machine.X/washiing_machine_functi
      +                          on_def.c: 372:     }
  4387                           
  4388                           
  4389                           ;../../../../Downloads/Project/Emertxe project/Washing_Machine.X/washiing_machine_functi
      +                          on_def.c: 370:     while (RB0 == 0) {
  4390     1688  1283               	bcf	3,5	;RP0=0, select bank0
  4391     1689  1303               	bcf	3,6	;RP1=0, select bank0
  4392     168A  1C06               	btfss	6,0	;volatile
  4393     168B  2E8D               	goto	u4011
  4394     168C  2E8E               	goto	u4010
  4395     168D                     u4011:
  4396     168D  2E88               	goto	l347
  4397     168E                     u4010:
  4398     168E                     l349:
  4399                           
  4400                           ;../../../../Downloads/Project/Emertxe project/Washing_Machine.X/washiing_machine_functi
      +                          on_def.c: 373:     RC2 = 1;
  4401     168E  1507               	bsf	7,2	;volatile
  4402                           
  4403                           ;../../../../Downloads/Project/Emertxe project/Washing_Machine.X/washiing_machine_functi
      +                          on_def.c: 374:     TMR2ON = 1;
  4404     168F  1512               	bsf	18,2	;volatile
  4405                           
  4406                           ;../../../../Downloads/Project/Emertxe project/Washing_Machine.X/washiing_machine_functi
      +                          on_def.c: 375:     RC1 = 0;
  4407     1690  1087               	bcf	7,1	;volatile
  4408     1691                     l3209:
  4409                           
  4410                           ;../../../../Downloads/Project/Emertxe project/Washing_Machine.X/washiing_machine_functi
      +                          on_def.c: 376:     clear_screen();
  4411     1691  160A  118A  2454  160A  118A  	fcall	_clear_screen
  4412     1696                     l3211:
  4413                           
  4414                           ;../../../../Downloads/Project/Emertxe project/Washing_Machine.X/washiing_machine_functi
      +                          on_def.c: 377:     clcd_print("Function:", (0x80 + 0));
  4415     1696  30EF               	movlw	low (STR_30| (0+32768))
  4416     1697  1283               	bcf	3,5	;RP0=0, select bank0
  4417     1698  1303               	bcf	3,6	;RP1=0, select bank0
  4418     1699  00A0               	movwf	clcd_print@str
  4419     169A  3090               	movlw	high (STR_30| (0+32768))
  4420     169B  00A1               	movwf	clcd_print@str+1
  4421     169C  3080               	movlw	128
  4422     169D  00A2               	movwf	clcd_print@addr
  4423     169E  160A  118A  2532  160A  118A  	fcall	_clcd_print
  4424     16A3                     l3213:
  4425                           
  4426                           ;../../../../Downloads/Project/Emertxe project/Washing_Machine.X/washiing_machine_functi
      +                          on_def.c: 378:     clcd_print("Time", (0xC0 + 0));
  4427     16A3  3079               	movlw	low (STR_45| (0+32768))
  4428     16A4  1283               	bcf	3,5	;RP0=0, select bank0
  4429     16A5  1303               	bcf	3,6	;RP1=0, select bank0
  4430     16A6  00A0               	movwf	clcd_print@str
  4431     16A7  3091               	movlw	high (STR_45| (0+32768))
  4432     16A8  00A1               	movwf	clcd_print@str+1
  4433     16A9  30C0               	movlw	192
  4434     16AA  00A2               	movwf	clcd_print@addr
  4435     16AB  160A  118A  2532  160A  118A  	fcall	_clcd_print
  4436     16B0                     l3215:
  4437                           
  4438                           ;../../../../Downloads/Project/Emertxe project/Washing_Machine.X/washiing_machine_functi
      +                          on_def.c: 379:     clcd_print("5:START 6:PAUSE", (0x90 + 0));
  4439     16B0  3046               	movlw	low (STR_32| (0+32768))
  4440     16B1  1283               	bcf	3,5	;RP0=0, select bank0
  4441     16B2  1303               	bcf	3,6	;RP1=0, select bank0
  4442     16B3  00A0               	movwf	clcd_print@str
  4443     16B4  3090               	movlw	high (STR_32| (0+32768))
  4444     16B5  00A1               	movwf	clcd_print@str+1
  4445     16B6  3090               	movlw	144
  4446     16B7  00A2               	movwf	clcd_print@addr
  4447     16B8  160A  118A  2532  160A  118A  	fcall	_clcd_print
  4448     16BD                     l350:
  4449     16BD  0008               	return
  4450     16BE                     __end_of_door_status_check:
  4451                           
  4452                           	psect	text6
  4453     1454                     __ptext6:	
  4454 ;; *************** function _clear_screen *****************
  4455 ;; Defined at:
  4456 ;;		line 383 in file "../../../../Downloads/Project/Emertxe project/Washing_Machine.X/washiing_machine_function_def.c"
  4457 ;; Parameters:    Size  Location     Type
  4458 ;;		None
  4459 ;; Auto vars:     Size  Location     Type
  4460 ;;		None
  4461 ;; Return value:  Size  Location     Type
  4462 ;;                  1    wreg      void 
  4463 ;; Registers used:
  4464 ;;		wreg, status,2, status,0, pclath, cstack
  4465 ;; Tracked objects:
  4466 ;;		On entry : 0/0
  4467 ;;		On exit  : 0/0
  4468 ;;		Unchanged: 0/0
  4469 ;; Data sizes:     COMMON   BANK0   BANK1   BANK3   BANK2
  4470 ;;      Params:         0       0       0       0       0
  4471 ;;      Locals:         0       0       0       0       0
  4472 ;;      Temps:          2       0       0       0       0
  4473 ;;      Totals:         2       0       0       0       0
  4474 ;;Total ram usage:        2 bytes
  4475 ;; Hardware stack levels used: 1
  4476 ;; Hardware stack levels required when called: 2
  4477 ;; This function calls:
  4478 ;;		_clcd_write
  4479 ;; This function is called by:
  4480 ;;		_main
  4481 ;;		_washing_program_display
  4482 ;;		_water_level_screen
  4483 ;;		_run_program
  4484 ;;		_door_status_check
  4485 ;; This function uses a non-reentrant model
  4486 ;;
  4487                           
  4488     1454                     _clear_screen:	
  4489                           ;psect for function _clear_screen
  4490                           
  4491     1454                     l2949:	
  4492                           ;incstack = 0
  4493                           ; Regs used in _clear_screen: [wreg+status,2+status,0+pclath+cstack]
  4494                           
  4495                           
  4496                           ;../../../../Downloads/Project/Emertxe project/Washing_Machine.X/washiing_machine_functi
      +                          on_def.c: 384:     clcd_write(0x01, 0);
  4497     1454  01F2               	clrf	clcd_write@mode
  4498     1455  3001               	movlw	1
  4499     1456  160A  118A  24A7  160A  118A  	fcall	_clcd_write
  4500     145B                     l2951:
  4501                           
  4502                           ;../../../../Downloads/Project/Emertxe project/Washing_Machine.X/washiing_machine_functi
      +                          on_def.c: 385:     _delay((unsigned long)((500)*(20000000/4000000.0)));
  4503     145B  3004               	movlw	4
  4504     145C  00F7               	movwf	??_clear_screen+1
  4505     145D  303D               	movlw	61
  4506     145E  00F6               	movwf	??_clear_screen
  4507     145F                     u5697:
  4508     145F  0BF6               	decfsz	??_clear_screen,f
  4509     1460  2C5F               	goto	u5697
  4510     1461  0BF7               	decfsz	??_clear_screen+1,f
  4511     1462  2C5F               	goto	u5697
  4512     1463  2C64               	nop2
  4513     1464                     l353:
  4514     1464  0008               	return
  4515     1465                     __end_of_clear_screen:
  4516                           
  4517                           	psect	text7
  4518     0743                     __ptext7:	
  4519 ;; *************** function ___xxtofl *****************
  4520 ;; Defined at:
  4521 ;;		line 10 in file "C:\Program Files\Microchip\xc8\v3.00\pic\sources\c99\common\xxtofl.c"
  4522 ;; Parameters:    Size  Location     Type
  4523 ;;  sign            1    wreg     unsigned char 
  4524 ;;  val             4    2[COMMON] long 
  4525 ;; Auto vars:     Size  Location     Type
  4526 ;;  sign            1    4[BANK0 ] unsigned char 
  4527 ;;  arg             4    6[BANK0 ] unsigned long 
  4528 ;;  exp             1    5[BANK0 ] unsigned char 
  4529 ;; Return value:  Size  Location     Type
  4530 ;;                  4    2[COMMON] unsigned char 
  4531 ;; Registers used:
  4532 ;;		wreg, status,2, status,0
  4533 ;; Tracked objects:
  4534 ;;		On entry : 0/0
  4535 ;;		On exit  : 0/0
  4536 ;;		Unchanged: 0/0
  4537 ;; Data sizes:     COMMON   BANK0   BANK1   BANK3   BANK2
  4538 ;;      Params:         4       0       0       0       0
  4539 ;;      Locals:         0       6       0       0       0
  4540 ;;      Temps:          0       4       0       0       0
  4541 ;;      Totals:         4      10       0       0       0
  4542 ;;Total ram usage:       14 bytes
  4543 ;; Hardware stack levels used: 1
  4544 ;; Hardware stack levels required when called: 1
  4545 ;; This function calls:
  4546 ;;		Nothing
  4547 ;; This function is called by:
  4548 ;;		_run_program
  4549 ;; This function uses a non-reentrant model
  4550 ;;
  4551                           
  4552     0743                     ___xxtofl:	
  4553                           ;psect for function ___xxtofl
  4554                           
  4555                           
  4556                           ;incstack = 0
  4557                           ; Regs used in ___xxtofl: [wreg+status,2+status,0]
  4558                           ;___xxtofl@sign stored from wreg
  4559     0743  1283               	bcf	3,5	;RP0=0, select bank0
  4560     0744  1303               	bcf	3,6	;RP1=0, select bank0
  4561     0745  00A4               	movwf	___xxtofl@sign
  4562     0746                     l3517:
  4563     0746  0824               	movf	___xxtofl@sign,w
  4564     0747  1903               	btfsc	3,2
  4565     0748  2F4A               	goto	u4791
  4566     0749  2F4B               	goto	u4790
  4567     074A                     u4791:
  4568     074A  2F5F               	goto	l3523
  4569     074B                     u4790:
  4570     074B                     l3519:
  4571     074B  1FF5               	btfss	___xxtofl@val+3,7
  4572     074C  2F4E               	goto	u4801
  4573     074D  2F4F               	goto	u4800
  4574     074E                     u4801:
  4575     074E  2F5F               	goto	l3523
  4576     074F                     u4800:
  4577     074F                     l3521:
  4578     074F  0972               	comf	___xxtofl@val,w
  4579     0750  00A6               	movwf	___xxtofl@arg
  4580     0751  0973               	comf	___xxtofl@val+1,w
  4581     0752  00A7               	movwf	___xxtofl@arg+1
  4582     0753  0974               	comf	___xxtofl@val+2,w
  4583     0754  00A8               	movwf	___xxtofl@arg+2
  4584     0755  0975               	comf	___xxtofl@val+3,w
  4585     0756  00A9               	movwf	___xxtofl@arg+3
  4586     0757  0AA6               	incf	___xxtofl@arg,f
  4587     0758  1903               	skipnz
  4588     0759  0AA7               	incf	___xxtofl@arg+1,f
  4589     075A  1903               	skipnz
  4590     075B  0AA8               	incf	___xxtofl@arg+2,f
  4591     075C  1903               	skipnz
  4592     075D  0AA9               	incf	___xxtofl@arg+3,f
  4593     075E  2F67               	goto	l880
  4594     075F                     l3523:
  4595     075F  0875               	movf	___xxtofl@val+3,w
  4596     0760  00A9               	movwf	___xxtofl@arg+3
  4597     0761  0874               	movf	___xxtofl@val+2,w
  4598     0762  00A8               	movwf	___xxtofl@arg+2
  4599     0763  0873               	movf	___xxtofl@val+1,w
  4600     0764  00A7               	movwf	___xxtofl@arg+1
  4601     0765  0872               	movf	___xxtofl@val,w
  4602     0766  00A6               	movwf	___xxtofl@arg
  4603     0767                     l880:
  4604     0767  0875               	movf	___xxtofl@val+3,w
  4605     0768  0474               	iorwf	___xxtofl@val+2,w
  4606     0769  0473               	iorwf	___xxtofl@val+1,w
  4607     076A  0472               	iorwf	___xxtofl@val,w
  4608     076B  1D03               	skipz
  4609     076C  2F6E               	goto	u4811
  4610     076D  2F6F               	goto	u4810
  4611     076E                     u4811:
  4612     076E  2F78               	goto	l881
  4613     076F                     u4810:
  4614     076F                     l3525:
  4615     076F  3000               	movlw	0
  4616     0770  00F5               	movwf	?___xxtofl+3
  4617     0771  3000               	movlw	0
  4618     0772  00F4               	movwf	?___xxtofl+2
  4619     0773  3000               	movlw	0
  4620     0774  00F3               	movwf	?___xxtofl+1
  4621     0775  3000               	movlw	0
  4622     0776  00F2               	movwf	?___xxtofl
  4623     0777  2FF8               	goto	l882
  4624     0778                     l881:
  4625     0778  3096               	movlw	150
  4626     0779  00A5               	movwf	___xxtofl@exp
  4627     077A  2F86               	goto	l3531
  4628     077B                     l3529:
  4629     077B  3001               	movlw	1
  4630     077C  07A5               	addwf	___xxtofl@exp,f
  4631     077D  3001               	movlw	1
  4632     077E                     u4825:
  4633     077E  1003               	clrc
  4634     077F  0CA9               	rrf	___xxtofl@arg+3,f
  4635     0780  0CA8               	rrf	___xxtofl@arg+2,f
  4636     0781  0CA7               	rrf	___xxtofl@arg+1,f
  4637     0782  0CA6               	rrf	___xxtofl@arg,f
  4638     0783  3EFF               	addlw	-1
  4639     0784  1D03               	skipz
  4640     0785  2F7E               	goto	u4825
  4641     0786                     l3531:
  4642     0786  30FE               	movlw	254
  4643     0787  0529               	andwf	___xxtofl@arg+3,w
  4644     0788  1D03               	btfss	3,2
  4645     0789  2F8B               	goto	u4831
  4646     078A  2F8C               	goto	u4830
  4647     078B                     u4831:
  4648     078B  2F7B               	goto	l3529
  4649     078C                     u4830:
  4650     078C  2FA6               	goto	l886
  4651     078D                     l3533:
  4652     078D  3001               	movlw	1
  4653     078E  07A5               	addwf	___xxtofl@exp,f
  4654     078F                     l3535:
  4655     078F  3001               	movlw	1
  4656     0790  07A6               	addwf	___xxtofl@arg,f
  4657     0791  3000               	movlw	0
  4658     0792  1803               	skipnc
  4659     0793  3001               	movlw	1
  4660     0794  07A7               	addwf	___xxtofl@arg+1,f
  4661     0795  3000               	movlw	0
  4662     0796  1803               	skipnc
  4663     0797  3001               	movlw	1
  4664     0798  07A8               	addwf	___xxtofl@arg+2,f
  4665     0799  3000               	movlw	0
  4666     079A  1803               	skipnc
  4667     079B  3001               	movlw	1
  4668     079C  07A9               	addwf	___xxtofl@arg+3,f
  4669     079D                     l3537:
  4670     079D  3001               	movlw	1
  4671     079E                     u4845:
  4672     079E  1003               	clrc
  4673     079F  0CA9               	rrf	___xxtofl@arg+3,f
  4674     07A0  0CA8               	rrf	___xxtofl@arg+2,f
  4675     07A1  0CA7               	rrf	___xxtofl@arg+1,f
  4676     07A2  0CA6               	rrf	___xxtofl@arg,f
  4677     07A3  3EFF               	addlw	-1
  4678     07A4  1D03               	skipz
  4679     07A5  2F9E               	goto	u4845
  4680     07A6                     l886:
  4681     07A6  30FF               	movlw	255
  4682     07A7  0529               	andwf	___xxtofl@arg+3,w
  4683     07A8  1D03               	btfss	3,2
  4684     07A9  2FAB               	goto	u4851
  4685     07AA  2FAC               	goto	u4850
  4686     07AB                     u4851:
  4687     07AB  2F8D               	goto	l3533
  4688     07AC                     u4850:
  4689     07AC  2FB8               	goto	l3541
  4690     07AD                     l3539:
  4691     07AD  3001               	movlw	1
  4692     07AE  02A5               	subwf	___xxtofl@exp,f
  4693     07AF  3001               	movlw	1
  4694     07B0  00A0               	movwf	??___xxtofl
  4695     07B1                     u4865:
  4696     07B1  1003               	clrc
  4697     07B2  0DA6               	rlf	___xxtofl@arg,f
  4698     07B3  0DA7               	rlf	___xxtofl@arg+1,f
  4699     07B4  0DA8               	rlf	___xxtofl@arg+2,f
  4700     07B5  0DA9               	rlf	___xxtofl@arg+3,f
  4701     07B6  0BA0               	decfsz	??___xxtofl,f
  4702     07B7  2FB1               	goto	u4865
  4703     07B8                     l3541:
  4704     07B8  1BA8               	btfsc	___xxtofl@arg+2,7
  4705     07B9  2FBB               	goto	u4871
  4706     07BA  2FBC               	goto	u4870
  4707     07BB                     u4871:
  4708     07BB  2FC2               	goto	l893
  4709     07BC                     u4870:
  4710     07BC                     l3543:
  4711     07BC  3002               	movlw	2
  4712     07BD  0225               	subwf	___xxtofl@exp,w
  4713     07BE  1803               	skipnc
  4714     07BF  2FC1               	goto	u4881
  4715     07C0  2FC2               	goto	u4880
  4716     07C1                     u4881:
  4717     07C1  2FAD               	goto	l3539
  4718     07C2                     u4880:
  4719     07C2                     l893:
  4720     07C2  1825               	btfsc	___xxtofl@exp,0
  4721     07C3  2FC5               	goto	u4891
  4722     07C4  2FC6               	goto	u4890
  4723     07C5                     u4891:
  4724     07C5  2FCE               	goto	l894
  4725     07C6                     u4890:
  4726     07C6                     l3545:
  4727     07C6  30FF               	movlw	255
  4728     07C7  05A6               	andwf	___xxtofl@arg,f
  4729     07C8  30FF               	movlw	255
  4730     07C9  05A7               	andwf	___xxtofl@arg+1,f
  4731     07CA  307F               	movlw	127
  4732     07CB  05A8               	andwf	___xxtofl@arg+2,f
  4733     07CC  30FF               	movlw	255
  4734     07CD  05A9               	andwf	___xxtofl@arg+3,f
  4735     07CE                     l894:
  4736     07CE  1003               	clrc
  4737     07CF  0CA5               	rrf	___xxtofl@exp,f
  4738     07D0                     l3547:
  4739     07D0  0825               	movf	___xxtofl@exp,w
  4740     07D1  00A0               	movwf	??___xxtofl
  4741     07D2  01A1               	clrf	??___xxtofl+1
  4742     07D3  01A2               	clrf	??___xxtofl+2
  4743     07D4  01A3               	clrf	??___xxtofl+3
  4744     07D5  3018               	movlw	24
  4745     07D6                     u4905:
  4746     07D6  1003               	clrc
  4747     07D7  0DA0               	rlf	??___xxtofl,f
  4748     07D8  0DA1               	rlf	??___xxtofl+1,f
  4749     07D9  0DA2               	rlf	??___xxtofl+2,f
  4750     07DA  0DA3               	rlf	??___xxtofl+3,f
  4751     07DB                     u4900:
  4752     07DB  3EFF               	addlw	-1
  4753     07DC  1D03               	skipz
  4754     07DD  2FD6               	goto	u4905
  4755     07DE  0820               	movf	??___xxtofl,w
  4756     07DF  04A6               	iorwf	___xxtofl@arg,f
  4757     07E0  0821               	movf	??___xxtofl+1,w
  4758     07E1  04A7               	iorwf	___xxtofl@arg+1,f
  4759     07E2  0822               	movf	??___xxtofl+2,w
  4760     07E3  04A8               	iorwf	___xxtofl@arg+2,f
  4761     07E4  0823               	movf	??___xxtofl+3,w
  4762     07E5  04A9               	iorwf	___xxtofl@arg+3,f
  4763     07E6                     l3549:
  4764     07E6  0824               	movf	___xxtofl@sign,w
  4765     07E7  1903               	btfsc	3,2
  4766     07E8  2FEA               	goto	u4911
  4767     07E9  2FEB               	goto	u4910
  4768     07EA                     u4911:
  4769     07EA  2FF0               	goto	l3555
  4770     07EB                     u4910:
  4771     07EB                     l3551:
  4772     07EB  1FF5               	btfss	___xxtofl@val+3,7
  4773     07EC  2FEE               	goto	u4921
  4774     07ED  2FEF               	goto	u4920
  4775     07EE                     u4921:
  4776     07EE  2FF0               	goto	l3555
  4777     07EF                     u4920:
  4778     07EF                     l3553:
  4779     07EF  17A9               	bsf	___xxtofl@arg+3,7
  4780     07F0                     l3555:
  4781     07F0  0829               	movf	___xxtofl@arg+3,w
  4782     07F1  00F5               	movwf	?___xxtofl+3
  4783     07F2  0828               	movf	___xxtofl@arg+2,w
  4784     07F3  00F4               	movwf	?___xxtofl+2
  4785     07F4  0827               	movf	___xxtofl@arg+1,w
  4786     07F5  00F3               	movwf	?___xxtofl+1
  4787     07F6  0826               	movf	___xxtofl@arg,w
  4788     07F7  00F2               	movwf	?___xxtofl
  4789     07F8                     l882:
  4790     07F8  0008               	return
  4791     07F9                     __end_of___xxtofl:
  4792                           
  4793                           	psect	text8
  4794     150D                     __ptext8:	
  4795 ;; *************** function ___wmul *****************
  4796 ;; Defined at:
  4797 ;;		line 15 in file "C:\Program Files\Microchip\xc8\v3.00\pic\sources\c99\common\Umul16.c"
  4798 ;; Parameters:    Size  Location     Type
  4799 ;;  multiplier      2    2[COMMON] unsigned int 
  4800 ;;  multiplicand    2    4[COMMON] unsigned int 
  4801 ;; Auto vars:     Size  Location     Type
  4802 ;;  product         2    6[COMMON] unsigned int 
  4803 ;; Return value:  Size  Location     Type
  4804 ;;                  2    2[COMMON] unsigned int 
  4805 ;; Registers used:
  4806 ;;		wreg, status,2, status,0
  4807 ;; Tracked objects:
  4808 ;;		On entry : 0/0
  4809 ;;		On exit  : 0/0
  4810 ;;		Unchanged: 0/0
  4811 ;; Data sizes:     COMMON   BANK0   BANK1   BANK3   BANK2
  4812 ;;      Params:         4       0       0       0       0
  4813 ;;      Locals:         2       0       0       0       0
  4814 ;;      Temps:          0       0       0       0       0
  4815 ;;      Totals:         6       0       0       0       0
  4816 ;;Total ram usage:        6 bytes
  4817 ;; Hardware stack levels used: 1
  4818 ;; Hardware stack levels required when called: 1
  4819 ;; This function calls:
  4820 ;;		Nothing
  4821 ;; This function is called by:
  4822 ;;		_run_program
  4823 ;; This function uses a non-reentrant model
  4824 ;;
  4825                           
  4826     150D                     ___wmul:	
  4827                           ;psect for function ___wmul
  4828                           
  4829     150D                     l3217:	
  4830                           ;incstack = 0
  4831                           ; Regs used in ___wmul: [wreg+status,2+status,0]
  4832                           
  4833     150D  01F6               	clrf	___wmul@product
  4834     150E  01F7               	clrf	___wmul@product+1
  4835     150F                     l3219:
  4836     150F  1C72               	btfss	___wmul@multiplier,0
  4837     1510  2D12               	goto	u4021
  4838     1511  2D13               	goto	u4020
  4839     1512                     u4021:
  4840     1512  2D19               	goto	l439
  4841     1513                     u4020:
  4842     1513                     l3221:
  4843     1513  0874               	movf	___wmul@multiplicand,w
  4844     1514  07F6               	addwf	___wmul@product,f
  4845     1515  1803               	skipnc
  4846     1516  0AF7               	incf	___wmul@product+1,f
  4847     1517  0875               	movf	___wmul@multiplicand+1,w
  4848     1518  07F7               	addwf	___wmul@product+1,f
  4849     1519                     l439:
  4850     1519  3001               	movlw	1
  4851     151A                     u4035:
  4852     151A  1003               	clrc
  4853     151B  0DF4               	rlf	___wmul@multiplicand,f
  4854     151C  0DF5               	rlf	___wmul@multiplicand+1,f
  4855     151D  3EFF               	addlw	-1
  4856     151E  1D03               	skipz
  4857     151F  2D1A               	goto	u4035
  4858     1520                     l3223:
  4859     1520  3001               	movlw	1
  4860     1521                     u4045:
  4861     1521  1003               	clrc
  4862     1522  0CF3               	rrf	___wmul@multiplier+1,f
  4863     1523  0CF2               	rrf	___wmul@multiplier,f
  4864     1524  3EFF               	addlw	-1
  4865     1525  1D03               	skipz
  4866     1526  2D21               	goto	u4045
  4867     1527                     l3225:
  4868     1527  0872               	movf	___wmul@multiplier,w
  4869     1528  0473               	iorwf	___wmul@multiplier+1,w
  4870     1529  1D03               	btfss	3,2
  4871     152A  2D2C               	goto	u4051
  4872     152B  2D2D               	goto	u4050
  4873     152C                     u4051:
  4874     152C  2D0F               	goto	l3219
  4875     152D                     u4050:
  4876     152D                     l3227:
  4877     152D  0877               	movf	___wmul@product+1,w
  4878     152E  00F3               	movwf	?___wmul+1
  4879     152F  0876               	movf	___wmul@product,w
  4880     1530  00F2               	movwf	?___wmul
  4881     1531                     l441:
  4882     1531  0008               	return
  4883     1532                     __end_of___wmul:
  4884                           
  4885                           	psect	text9
  4886     0831                     __ptext9:	
  4887 ;; *************** function ___fltol *****************
  4888 ;; Defined at:
  4889 ;;		line 43 in file "C:\Program Files\Microchip\xc8\v3.00\pic\sources\c99\common\fltol.c"
  4890 ;; Parameters:    Size  Location     Type
  4891 ;;  f1              4   36[BANK0 ] unsigned int 
  4892 ;; Auto vars:     Size  Location     Type
  4893 ;;  exp1            1    7[COMMON] unsigned char 
  4894 ;;  sign1           1    6[COMMON] unsigned char 
  4895 ;; Return value:  Size  Location     Type
  4896 ;;                  4   36[BANK0 ] long 
  4897 ;; Registers used:
  4898 ;;		wreg, status,2, status,0
  4899 ;; Tracked objects:
  4900 ;;		On entry : 0/0
  4901 ;;		On exit  : 0/0
  4902 ;;		Unchanged: 0/0
  4903 ;; Data sizes:     COMMON   BANK0   BANK1   BANK3   BANK2
  4904 ;;      Params:         0       4       0       0       0
  4905 ;;      Locals:         2       0       0       0       0
  4906 ;;      Temps:          0       4       0       0       0
  4907 ;;      Totals:         2       8       0       0       0
  4908 ;;Total ram usage:       10 bytes
  4909 ;; Hardware stack levels used: 1
  4910 ;; Hardware stack levels required when called: 1
  4911 ;; This function calls:
  4912 ;;		Nothing
  4913 ;; This function is called by:
  4914 ;;		_run_program
  4915 ;; This function uses a non-reentrant model
  4916 ;;
  4917                           
  4918     0831                     ___fltol:	
  4919                           ;psect for function ___fltol
  4920                           
  4921     0831                     l3333:	
  4922                           ;incstack = 0
  4923                           ; Regs used in ___fltol: [wreg+status,2+status,0]
  4924                           
  4925     0831  1003               	clrc
  4926     0832  1283               	bcf	3,5	;RP0=0, select bank0
  4927     0833  1303               	bcf	3,6	;RP1=0, select bank0
  4928     0834  0D46               	rlf	___fltol@f1+2,w
  4929     0835  0D47               	rlf	___fltol@f1+3,w
  4930     0836  00F7               	movwf	___fltol@exp1
  4931     0837  0877               	movf	___fltol@exp1,w
  4932     0838  1D03               	btfss	3,2
  4933     0839  283B               	goto	u4321
  4934     083A  283C               	goto	u4320
  4935     083B                     u4321:
  4936     083B  2845               	goto	l3339
  4937     083C                     u4320:
  4938     083C                     l3335:
  4939     083C  3000               	movlw	0
  4940     083D  00C7               	movwf	?___fltol+3
  4941     083E  3000               	movlw	0
  4942     083F  00C6               	movwf	?___fltol+2
  4943     0840  3000               	movlw	0
  4944     0841  00C5               	movwf	?___fltol+1
  4945     0842  3000               	movlw	0
  4946     0843  00C4               	movwf	?___fltol
  4947     0844  28A6               	goto	l633
  4948     0845                     l3339:
  4949     0845  0844               	movf	___fltol@f1,w
  4950     0846  00C8               	movwf	??___fltol
  4951     0847  0845               	movf	___fltol@f1+1,w
  4952     0848  00C9               	movwf	??___fltol+1
  4953     0849  0846               	movf	___fltol@f1+2,w
  4954     084A  00CA               	movwf	??___fltol+2
  4955     084B  0847               	movf	___fltol@f1+3,w
  4956     084C  00CB               	movwf	??___fltol+3
  4957     084D  301F               	movlw	31
  4958     084E                     u4335:
  4959     084E  1003               	clrc
  4960     084F  0CCB               	rrf	??___fltol+3,f
  4961     0850  0CCA               	rrf	??___fltol+2,f
  4962     0851  0CC9               	rrf	??___fltol+1,f
  4963     0852  0CC8               	rrf	??___fltol,f
  4964     0853                     u4330:
  4965     0853  3EFF               	addlw	-1
  4966     0854  1D03               	skipz
  4967     0855  284E               	goto	u4335
  4968     0856  0848               	movf	??___fltol,w
  4969     0857  00F6               	movwf	___fltol@sign1
  4970     0858                     l3341:
  4971     0858  17C6               	bsf	___fltol@f1+2,7
  4972     0859                     l3343:
  4973     0859  30FF               	movlw	255
  4974     085A  05C4               	andwf	___fltol@f1,f
  4975     085B  30FF               	movlw	255
  4976     085C  05C5               	andwf	___fltol@f1+1,f
  4977     085D  30FF               	movlw	255
  4978     085E  05C6               	andwf	___fltol@f1+2,f
  4979     085F  3000               	movlw	0
  4980     0860  05C7               	andwf	___fltol@f1+3,f
  4981     0861                     l3345:
  4982     0861  3096               	movlw	150
  4983     0862  02F7               	subwf	___fltol@exp1,f
  4984     0863                     l3347:
  4985     0863  1FF7               	btfss	___fltol@exp1,7
  4986     0864  2866               	goto	u4341
  4987     0865  2867               	goto	u4340
  4988     0866                     u4341:
  4989     0866  287F               	goto	l3357
  4990     0867                     u4340:
  4991     0867                     l3349:
  4992     0867  0877               	movf	___fltol@exp1,w
  4993     0868  3A80               	xorlw	128
  4994     0869  3E97               	addlw	151
  4995     086A  1803               	skipnc
  4996     086B  286D               	goto	u4351
  4997     086C  286E               	goto	u4350
  4998     086D                     u4351:
  4999     086D  286F               	goto	l3355
  5000     086E                     u4350:
  5001     086E  283C               	goto	l3335
  5002     086F                     l3355:
  5003     086F  3001               	movlw	1
  5004     0870                     u4365:
  5005     0870  1003               	clrc
  5006     0871  0CC7               	rrf	___fltol@f1+3,f
  5007     0872  0CC6               	rrf	___fltol@f1+2,f
  5008     0873  0CC5               	rrf	___fltol@f1+1,f
  5009     0874  0CC4               	rrf	___fltol@f1,f
  5010     0875  3EFF               	addlw	-1
  5011     0876  1D03               	skipz
  5012     0877  2870               	goto	u4365
  5013     0878  3001               	movlw	1
  5014     0879  07F7               	addwf	___fltol@exp1,f
  5015     087A  1D03               	btfss	3,2
  5016     087B  287D               	goto	u4371
  5017     087C  287E               	goto	u4370
  5018     087D                     u4371:
  5019     087D  286F               	goto	l3355
  5020     087E                     u4370:
  5021     087E  2896               	goto	l3365
  5022     087F                     l3357:
  5023     087F  3020               	movlw	32
  5024     0880  0277               	subwf	___fltol@exp1,w
  5025     0881  1C03               	skipc
  5026     0882  2884               	goto	u4381
  5027     0883  2885               	goto	u4380
  5028     0884                     u4381:
  5029     0884  2891               	goto	l640
  5030     0885                     u4380:
  5031     0885  283C               	goto	l3335
  5032     0886                     l3363:
  5033     0886  3001               	movlw	1
  5034     0887  00C8               	movwf	??___fltol
  5035     0888                     u4395:
  5036     0888  1003               	clrc
  5037     0889  0DC4               	rlf	___fltol@f1,f
  5038     088A  0DC5               	rlf	___fltol@f1+1,f
  5039     088B  0DC6               	rlf	___fltol@f1+2,f
  5040     088C  0DC7               	rlf	___fltol@f1+3,f
  5041     088D  0BC8               	decfsz	??___fltol,f
  5042     088E  2888               	goto	u4395
  5043     088F  3001               	movlw	1
  5044     0890  02F7               	subwf	___fltol@exp1,f
  5045     0891                     l640:
  5046     0891  0877               	movf	___fltol@exp1,w
  5047     0892  1D03               	btfss	3,2
  5048     0893  2895               	goto	u4401
  5049     0894  2896               	goto	u4400
  5050     0895                     u4401:
  5051     0895  2886               	goto	l3363
  5052     0896                     u4400:
  5053     0896                     l3365:
  5054     0896  0876               	movf	___fltol@sign1,w
  5055     0897  1903               	btfsc	3,2
  5056     0898  289A               	goto	u4411
  5057     0899  289B               	goto	u4410
  5058     089A                     u4411:
  5059     089A  28A6               	goto	l643
  5060     089B                     u4410:
  5061     089B                     l3367:
  5062     089B  09C4               	comf	___fltol@f1,f
  5063     089C  09C5               	comf	___fltol@f1+1,f
  5064     089D  09C6               	comf	___fltol@f1+2,f
  5065     089E  09C7               	comf	___fltol@f1+3,f
  5066     089F  0AC4               	incf	___fltol@f1,f
  5067     08A0  1903               	skipnz
  5068     08A1  0AC5               	incf	___fltol@f1+1,f
  5069     08A2  1903               	skipnz
  5070     08A3  0AC6               	incf	___fltol@f1+2,f
  5071     08A4  1903               	skipnz
  5072     08A5  0AC7               	incf	___fltol@f1+3,f
  5073     08A6                     l643:
  5074     08A6                     l633:
  5075     08A6  0008               	return
  5076     08A7                     __end_of___fltol:
  5077                           
  5078                           	psect	text10
  5079     14E9                     __ptext10:	
  5080 ;; *************** function ___flsub *****************
  5081 ;; Defined at:
  5082 ;;		line 242 in file "C:\Program Files\Microchip\xc8\v3.00\pic\sources\c99\common\sprcadd.c"
  5083 ;; Parameters:    Size  Location     Type
  5084 ;;  a               4   36[BANK0 ] long 
  5085 ;;  b               4   40[BANK0 ] long 
  5086 ;; Auto vars:     Size  Location     Type
  5087 ;;		None
  5088 ;; Return value:  Size  Location     Type
  5089 ;;                  4   36[BANK0 ] long 
  5090 ;; Registers used:
  5091 ;;		wreg, status,2, status,0, btemp+1, pclath, cstack
  5092 ;; Tracked objects:
  5093 ;;		On entry : 0/0
  5094 ;;		On exit  : 0/0
  5095 ;;		Unchanged: 0/0
  5096 ;; Data sizes:     COMMON   BANK0   BANK1   BANK3   BANK2
  5097 ;;      Params:         0       8       0       0       0
  5098 ;;      Locals:         0       0       0       0       0
  5099 ;;      Temps:          0       0       0       0       0
  5100 ;;      Totals:         0       8       0       0       0
  5101 ;;Total ram usage:        8 bytes
  5102 ;; Hardware stack levels used: 1
  5103 ;; Hardware stack levels required when called: 2
  5104 ;; This function calls:
  5105 ;;		___fladd
  5106 ;; This function is called by:
  5107 ;;		_run_program
  5108 ;; This function uses a non-reentrant model
  5109 ;;
  5110                           
  5111     14E9                     ___flsub:	
  5112                           ;psect for function ___flsub
  5113                           
  5114     14E9                     l3369:	
  5115                           ;incstack = 0
  5116                           ; Regs used in ___flsub: [wreg+status,2+status,0+btemp+1+pclath+cstack]
  5117                           
  5118     14E9  3080               	movlw	128
  5119     14EA  1283               	bcf	3,5	;RP0=0, select bank0
  5120     14EB  1303               	bcf	3,6	;RP1=0, select bank0
  5121     14EC  06C7               	xorwf	___flsub@a+3,f
  5122     14ED                     l3371:
  5123     14ED  084B               	movf	___flsub@b+3,w
  5124     14EE  00A3               	movwf	___fladd@b+3
  5125     14EF  084A               	movf	___flsub@b+2,w
  5126     14F0  00A2               	movwf	___fladd@b+2
  5127     14F1  0849               	movf	___flsub@b+1,w
  5128     14F2  00A1               	movwf	___fladd@b+1
  5129     14F3  0848               	movf	___flsub@b,w
  5130     14F4  00A0               	movwf	___fladd@b
  5131     14F5  0847               	movf	___flsub@a+3,w
  5132     14F6  00A7               	movwf	___fladd@a+3
  5133     14F7  0846               	movf	___flsub@a+2,w
  5134     14F8  00A6               	movwf	___fladd@a+2
  5135     14F9  0845               	movf	___flsub@a+1,w
  5136     14FA  00A5               	movwf	___fladd@a+1
  5137     14FB  0844               	movf	___flsub@a,w
  5138     14FC  00A4               	movwf	___fladd@a
  5139     14FD  120A  158A  25A8  160A  118A  	fcall	___fladd
  5140     1502  1283               	bcf	3,5	;RP0=0, select bank0
  5141     1503  1303               	bcf	3,6	;RP1=0, select bank0
  5142     1504  0823               	movf	?___fladd+3,w
  5143     1505  00C7               	movwf	?___flsub+3
  5144     1506  0822               	movf	?___fladd+2,w
  5145     1507  00C6               	movwf	?___flsub+2
  5146     1508  0821               	movf	?___fladd+1,w
  5147     1509  00C5               	movwf	?___flsub+1
  5148     150A  0820               	movf	?___fladd,w
  5149     150B  00C4               	movwf	?___flsub
  5150     150C                     l786:
  5151     150C  0008               	return
  5152     150D                     __end_of___flsub:
  5153                           
  5154                           	psect	text11
  5155     0DA8                     __ptext11:	
  5156 ;; *************** function ___fladd *****************
  5157 ;; Defined at:
  5158 ;;		line 10 in file "C:\Program Files\Microchip\xc8\v3.00\pic\sources\c99\common\sprcadd.c"
  5159 ;; Parameters:    Size  Location     Type
  5160 ;;  b               4    0[BANK0 ] long 
  5161 ;;  a               4    4[BANK0 ] long 
  5162 ;; Auto vars:     Size  Location     Type
  5163 ;;  grs             1    5[COMMON] unsigned char 
  5164 ;;  bexp            1    4[COMMON] unsigned char 
  5165 ;;  aexp            1    3[COMMON] unsigned char 
  5166 ;;  signs           1    2[COMMON] unsigned char 
  5167 ;; Return value:  Size  Location     Type
  5168 ;;                  4    0[BANK0 ] unsigned char 
  5169 ;; Registers used:
  5170 ;;		wreg, status,2, status,0, btemp+1
  5171 ;; Tracked objects:
  5172 ;;		On entry : 0/0
  5173 ;;		On exit  : 0/0
  5174 ;;		Unchanged: 0/0
  5175 ;; Data sizes:     COMMON   BANK0   BANK1   BANK3   BANK2
  5176 ;;      Params:         0       8       0       0       0
  5177 ;;      Locals:         4       0       0       0       0
  5178 ;;      Temps:          0       8       0       0       0
  5179 ;;      Totals:         4      16       0       0       0
  5180 ;;Total ram usage:       20 bytes
  5181 ;; Hardware stack levels used: 1
  5182 ;; Hardware stack levels required when called: 1
  5183 ;; This function calls:
  5184 ;;		Nothing
  5185 ;; This function is called by:
  5186 ;;		___flsub
  5187 ;; This function uses a non-reentrant model
  5188 ;;
  5189                           
  5190     0DA8                     ___fladd:	
  5191                           ;psect for function ___fladd
  5192                           
  5193     0DA8                     l2973:	
  5194                           ;incstack = 0
  5195                           ; Regs used in ___fladd: [wreg+status,2+status,0+btemp+1]
  5196                           
  5197     0DA8  1283               	bcf	3,5	;RP0=0, select bank0
  5198     0DA9  1303               	bcf	3,6	;RP1=0, select bank0
  5199     0DAA  0823               	movf	___fladd@b+3,w
  5200     0DAB  00F2               	movwf	___fladd@signs
  5201     0DAC                     l2975:
  5202     0DAC  3080               	movlw	128
  5203     0DAD  05F2               	andwf	___fladd@signs,f
  5204     0DAE                     l2977:
  5205     0DAE  0823               	movf	___fladd@b+3,w
  5206     0DAF  00A8               	movwf	??___fladd
  5207     0DB0  0728               	addwf	??___fladd,w
  5208     0DB1  00F4               	movwf	___fladd@bexp
  5209     0DB2                     l2979:
  5210     0DB2  1FA2               	btfss	___fladd@b+2,7
  5211     0DB3  2DB5               	goto	u3511
  5212     0DB4  2DB6               	goto	u3510
  5213     0DB5                     u3511:
  5214     0DB5  2DB7               	goto	l2983
  5215     0DB6                     u3510:
  5216     0DB6                     l2981:
  5217     0DB6  1474               	bsf	___fladd@bexp,0
  5218     0DB7                     l2983:
  5219     0DB7  0874               	movf	___fladd@bexp,w
  5220     0DB8  1903               	btfsc	3,2
  5221     0DB9  2DBB               	goto	u3521
  5222     0DBA  2DBC               	goto	u3520
  5223     0DBB                     u3521:
  5224     0DBB  2DCC               	goto	l2993
  5225     0DBC                     u3520:
  5226     0DBC                     l2985:
  5227     0DBC  0A74               	incf	___fladd@bexp,w
  5228     0DBD  1D03               	btfss	3,2
  5229     0DBE  2DC0               	goto	u3531
  5230     0DBF  2DC1               	goto	u3530
  5231     0DC0                     u3531:
  5232     0DC0  2DC9               	goto	l2989
  5233     0DC1                     u3530:
  5234     0DC1                     l2987:
  5235     0DC1  3000               	movlw	0
  5236     0DC2  00A3               	movwf	___fladd@b+3
  5237     0DC3  3000               	movlw	0
  5238     0DC4  00A2               	movwf	___fladd@b+2
  5239     0DC5  3000               	movlw	0
  5240     0DC6  00A1               	movwf	___fladd@b+1
  5241     0DC7  3000               	movlw	0
  5242     0DC8  00A0               	movwf	___fladd@b
  5243     0DC9                     l2989:
  5244     0DC9  17A2               	bsf	___fladd@b+2,7
  5245     0DCA                     l2991:
  5246     0DCA  01A3               	clrf	___fladd@b+3
  5247     0DCB  2DD4               	goto	l735
  5248     0DCC                     l2993:
  5249     0DCC  3000               	movlw	0
  5250     0DCD  00A3               	movwf	___fladd@b+3
  5251     0DCE  3000               	movlw	0
  5252     0DCF  00A2               	movwf	___fladd@b+2
  5253     0DD0  3000               	movlw	0
  5254     0DD1  00A1               	movwf	___fladd@b+1
  5255     0DD2  3000               	movlw	0
  5256     0DD3  00A0               	movwf	___fladd@b
  5257     0DD4                     l735:
  5258     0DD4  0827               	movf	___fladd@a+3,w
  5259     0DD5  00F3               	movwf	___fladd@aexp
  5260     0DD6                     l2995:
  5261     0DD6  3080               	movlw	128
  5262     0DD7  05F3               	andwf	___fladd@aexp,f
  5263     0DD8                     l2997:
  5264     0DD8  0873               	movf	___fladd@aexp,w
  5265     0DD9  0672               	xorwf	___fladd@signs,w
  5266     0DDA  1903               	skipnz
  5267     0DDB  2DDD               	goto	u3541
  5268     0DDC  2DDE               	goto	u3540
  5269     0DDD                     u3541:
  5270     0DDD  2DDF               	goto	l3001
  5271     0DDE                     u3540:
  5272     0DDE                     l2999:
  5273     0DDE  1772               	bsf	___fladd@signs,6
  5274     0DDF                     l3001:
  5275     0DDF  0827               	movf	___fladd@a+3,w
  5276     0DE0  00A8               	movwf	??___fladd
  5277     0DE1  0728               	addwf	??___fladd,w
  5278     0DE2  00F3               	movwf	___fladd@aexp
  5279     0DE3                     l3003:
  5280     0DE3  1FA6               	btfss	___fladd@a+2,7
  5281     0DE4  2DE6               	goto	u3551
  5282     0DE5  2DE7               	goto	u3550
  5283     0DE6                     u3551:
  5284     0DE6  2DE8               	goto	l3007
  5285     0DE7                     u3550:
  5286     0DE7                     l3005:
  5287     0DE7  1473               	bsf	___fladd@aexp,0
  5288     0DE8                     l3007:
  5289     0DE8  0873               	movf	___fladd@aexp,w
  5290     0DE9  1903               	btfsc	3,2
  5291     0DEA  2DEC               	goto	u3561
  5292     0DEB  2DED               	goto	u3560
  5293     0DEC                     u3561:
  5294     0DEC  2DFD               	goto	l3017
  5295     0DED                     u3560:
  5296     0DED                     l3009:
  5297     0DED  0A73               	incf	___fladd@aexp,w
  5298     0DEE  1D03               	btfss	3,2
  5299     0DEF  2DF1               	goto	u3571
  5300     0DF0  2DF2               	goto	u3570
  5301     0DF1                     u3571:
  5302     0DF1  2DFA               	goto	l3013
  5303     0DF2                     u3570:
  5304     0DF2                     l3011:
  5305     0DF2  3000               	movlw	0
  5306     0DF3  00A7               	movwf	___fladd@a+3
  5307     0DF4  3000               	movlw	0
  5308     0DF5  00A6               	movwf	___fladd@a+2
  5309     0DF6  3000               	movlw	0
  5310     0DF7  00A5               	movwf	___fladd@a+1
  5311     0DF8  3000               	movlw	0
  5312     0DF9  00A4               	movwf	___fladd@a
  5313     0DFA                     l3013:
  5314     0DFA  17A6               	bsf	___fladd@a+2,7
  5315     0DFB                     l3015:
  5316     0DFB  01A7               	clrf	___fladd@a+3
  5317     0DFC  2E05               	goto	l740
  5318     0DFD                     l3017:
  5319     0DFD  3000               	movlw	0
  5320     0DFE  00A7               	movwf	___fladd@a+3
  5321     0DFF  3000               	movlw	0
  5322     0E00  00A6               	movwf	___fladd@a+2
  5323     0E01  3000               	movlw	0
  5324     0E02  00A5               	movwf	___fladd@a+1
  5325     0E03  3000               	movlw	0
  5326     0E04  00A4               	movwf	___fladd@a
  5327     0E05                     l740:
  5328     0E05  0874               	movf	___fladd@bexp,w
  5329     0E06  0273               	subwf	___fladd@aexp,w
  5330     0E07  1803               	skipnc
  5331     0E08  2E0A               	goto	u3581
  5332     0E09  2E0B               	goto	u3580
  5333     0E0A                     u3581:
  5334     0E0A  2E2F               	goto	l3053
  5335     0E0B                     u3580:
  5336     0E0B                     l3019:
  5337     0E0B  1F72               	btfss	___fladd@signs,6
  5338     0E0C  2E0E               	goto	u3591
  5339     0E0D  2E0F               	goto	u3590
  5340     0E0E                     u3591:
  5341     0E0E  2E11               	goto	l3023
  5342     0E0F                     u3590:
  5343     0E0F                     l3021:
  5344     0E0F  3080               	movlw	128
  5345     0E10  06F2               	xorwf	___fladd@signs,f
  5346     0E11                     l3023:
  5347     0E11  0874               	movf	___fladd@bexp,w
  5348     0E12  00F5               	movwf	___fladd@grs
  5349     0E13                     l3025:
  5350     0E13  0873               	movf	___fladd@aexp,w
  5351     0E14  00F4               	movwf	___fladd@bexp
  5352     0E15                     l3027:
  5353     0E15  0875               	movf	___fladd@grs,w
  5354     0E16  00F3               	movwf	___fladd@aexp
  5355     0E17                     l3029:
  5356     0E17  0820               	movf	___fladd@b,w
  5357     0E18  00F5               	movwf	___fladd@grs
  5358     0E19                     l3031:
  5359     0E19  0824               	movf	___fladd@a,w
  5360     0E1A  00A0               	movwf	___fladd@b
  5361     0E1B                     l3033:
  5362     0E1B  0875               	movf	___fladd@grs,w
  5363     0E1C  00A4               	movwf	___fladd@a
  5364     0E1D                     l3035:
  5365     0E1D  0821               	movf	___fladd@b+1,w
  5366     0E1E  00F5               	movwf	___fladd@grs
  5367     0E1F                     l3037:
  5368     0E1F  0825               	movf	___fladd@a+1,w
  5369     0E20  00A1               	movwf	___fladd@b+1
  5370     0E21                     l3039:
  5371     0E21  0875               	movf	___fladd@grs,w
  5372     0E22  00A5               	movwf	___fladd@a+1
  5373     0E23                     l3041:
  5374     0E23  0822               	movf	___fladd@b+2,w
  5375     0E24  00F5               	movwf	___fladd@grs
  5376     0E25                     l3043:
  5377     0E25  0826               	movf	___fladd@a+2,w
  5378     0E26  00A2               	movwf	___fladd@b+2
  5379     0E27                     l3045:
  5380     0E27  0875               	movf	___fladd@grs,w
  5381     0E28  00A6               	movwf	___fladd@a+2
  5382     0E29                     l3047:
  5383     0E29  0823               	movf	___fladd@b+3,w
  5384     0E2A  00F5               	movwf	___fladd@grs
  5385     0E2B                     l3049:
  5386     0E2B  0827               	movf	___fladd@a+3,w
  5387     0E2C  00A3               	movwf	___fladd@b+3
  5388     0E2D                     l3051:
  5389     0E2D  0875               	movf	___fladd@grs,w
  5390     0E2E  00A7               	movwf	___fladd@a+3
  5391     0E2F                     l3053:
  5392     0E2F  01F5               	clrf	___fladd@grs
  5393     0E30                     l3055:
  5394     0E30  0873               	movf	___fladd@aexp,w
  5395     0E31  00A8               	movwf	??___fladd
  5396     0E32  01A9               	clrf	??___fladd+1
  5397     0E33  0829               	movf	??___fladd+1,w
  5398     0E34  00AB               	movwf	??___fladd+3
  5399     0E35  0874               	movf	___fladd@bexp,w
  5400     0E36  0228               	subwf	??___fladd,w
  5401     0E37  00AA               	movwf	??___fladd+2
  5402     0E38  1C03               	skipc
  5403     0E39  03AB               	decf	??___fladd+3,f
  5404     0E3A  082B               	movf	??___fladd+3,w
  5405     0E3B  3A80               	xorlw	128
  5406     0E3C  00FF               	movwf	btemp+1
  5407     0E3D  3080               	movlw	128
  5408     0E3E  027F               	subwf	btemp+1,w
  5409     0E3F  1D03               	skipz
  5410     0E40  2E43               	goto	u3605
  5411     0E41  301A               	movlw	26
  5412     0E42  022A               	subwf	??___fladd+2,w
  5413     0E43                     u3605:
  5414     0E43  1C03               	skipc
  5415     0E44  2E46               	goto	u3601
  5416     0E45  2E47               	goto	u3600
  5417     0E46                     u3601:
  5418     0E46  2E80               	goto	l3071
  5419     0E47                     u3600:
  5420     0E47                     l3057:
  5421     0E47  1283               	bcf	3,5	;RP0=0, select bank0
  5422     0E48  1303               	bcf	3,6	;RP1=0, select bank0
  5423     0E49  0823               	movf	___fladd@b+3,w
  5424     0E4A  0422               	iorwf	___fladd@b+2,w
  5425     0E4B  0421               	iorwf	___fladd@b+1,w
  5426     0E4C  0420               	iorwf	___fladd@b,w
  5427     0E4D  1D03               	skipz
  5428     0E4E  2E50               	goto	u3611
  5429     0E4F  2E52               	goto	u3610
  5430     0E50                     u3611:
  5431     0E50  3001               	movlw	1
  5432     0E51  2E53               	goto	u3620
  5433     0E52                     u3610:
  5434     0E52  3000               	movlw	0
  5435     0E53                     u3620:
  5436     0E53  00F5               	movwf	___fladd@grs
  5437     0E54  3000               	movlw	0
  5438     0E55  00A3               	movwf	___fladd@b+3
  5439     0E56  3000               	movlw	0
  5440     0E57  00A2               	movwf	___fladd@b+2
  5441     0E58  3000               	movlw	0
  5442     0E59  00A1               	movwf	___fladd@b+1
  5443     0E5A  3000               	movlw	0
  5444     0E5B  00A0               	movwf	___fladd@b
  5445     0E5C  0873               	movf	___fladd@aexp,w
  5446     0E5D  00F4               	movwf	___fladd@bexp
  5447     0E5E  2E86               	goto	l744
  5448     0E5F                     l746:
  5449     0E5F  1C75               	btfss	___fladd@grs,0
  5450     0E60  2E62               	goto	u3631
  5451     0E61  2E63               	goto	u3630
  5452     0E62                     u3631:
  5453     0E62  2E6C               	goto	l3061
  5454     0E63                     u3630:
  5455     0E63                     l3059:
  5456     0E63  0875               	movf	___fladd@grs,w
  5457     0E64  1283               	bcf	3,5	;RP0=0, select bank0
  5458     0E65  1303               	bcf	3,6	;RP1=0, select bank0
  5459     0E66  00A8               	movwf	??___fladd
  5460     0E67  1003               	clrc
  5461     0E68  0C28               	rrf	??___fladd,w
  5462     0E69  3801               	iorlw	1
  5463     0E6A  00F5               	movwf	___fladd@grs
  5464     0E6B  2E6E               	goto	l3063
  5465     0E6C                     l3061:
  5466     0E6C  1003               	clrc
  5467     0E6D  0CF5               	rrf	___fladd@grs,f
  5468     0E6E                     l3063:
  5469     0E6E  1283               	bcf	3,5	;RP0=0, select bank0
  5470     0E6F  1303               	bcf	3,6	;RP1=0, select bank0
  5471     0E70  1C20               	btfss	___fladd@b,0
  5472     0E71  2E73               	goto	u3641
  5473     0E72  2E74               	goto	u3640
  5474     0E73                     u3641:
  5475     0E73  2E75               	goto	l3067
  5476     0E74                     u3640:
  5477     0E74                     l3065:
  5478     0E74  17F5               	bsf	___fladd@grs,7
  5479     0E75                     l3067:
  5480     0E75  3001               	movlw	1
  5481     0E76  00A8               	movwf	??___fladd
  5482     0E77                     u3655:
  5483     0E77  0D23               	rlf	___fladd@b+3,w
  5484     0E78  0CA3               	rrf	___fladd@b+3,f
  5485     0E79  0CA2               	rrf	___fladd@b+2,f
  5486     0E7A  0CA1               	rrf	___fladd@b+1,f
  5487     0E7B  0CA0               	rrf	___fladd@b,f
  5488     0E7C  0BA8               	decfsz	??___fladd& (0+127),f
  5489     0E7D  2E77               	goto	u3655
  5490     0E7E                     l3069:
  5491     0E7E  3001               	movlw	1
  5492     0E7F  07F4               	addwf	___fladd@bexp,f
  5493     0E80                     l3071:
  5494     0E80  0873               	movf	___fladd@aexp,w
  5495     0E81  0274               	subwf	___fladd@bexp,w
  5496     0E82  1C03               	skipc
  5497     0E83  2E85               	goto	u3661
  5498     0E84  2E86               	goto	u3660
  5499     0E85                     u3661:
  5500     0E85  2E5F               	goto	l746
  5501     0E86                     u3660:
  5502     0E86                     l744:
  5503     0E86  1B72               	btfsc	___fladd@signs,6
  5504     0E87  2E89               	goto	u3671
  5505     0E88  2E8A               	goto	u3670
  5506     0E89                     u3671:
  5507     0E89  2ED5               	goto	l3097
  5508     0E8A                     u3670:
  5509     0E8A                     l3073:
  5510     0E8A  0874               	movf	___fladd@bexp,w
  5511     0E8B  1D03               	btfss	3,2
  5512     0E8C  2E8E               	goto	u3681
  5513     0E8D  2E8F               	goto	u3680
  5514     0E8E                     u3681:
  5515     0E8E  2E9A               	goto	l3079
  5516     0E8F                     u3680:
  5517     0E8F                     l3075:
  5518     0E8F  3000               	movlw	0
  5519     0E90  1283               	bcf	3,5	;RP0=0, select bank0
  5520     0E91  1303               	bcf	3,6	;RP1=0, select bank0
  5521     0E92  00A3               	movwf	?___fladd+3
  5522     0E93  3000               	movlw	0
  5523     0E94  00A2               	movwf	?___fladd+2
  5524     0E95  3000               	movlw	0
  5525     0E96  00A1               	movwf	?___fladd+1
  5526     0E97  3000               	movlw	0
  5527     0E98  00A0               	movwf	?___fladd
  5528     0E99  2FFF               	goto	l753
  5529     0E9A                     l3079:
  5530     0E9A  1283               	bcf	3,5	;RP0=0, select bank0
  5531     0E9B  1303               	bcf	3,6	;RP1=0, select bank0
  5532     0E9C  0824               	movf	___fladd@a,w
  5533     0E9D  07A0               	addwf	___fladd@b,f
  5534     0E9E  0825               	movf	___fladd@a+1,w
  5535     0E9F  1103               	clrz
  5536     0EA0  1803               	skipnc
  5537     0EA1  3E01               	addlw	1
  5538     0EA2  1903               	skipnz
  5539     0EA3  2EA5               	goto	u3691
  5540     0EA4  07A1               	addwf	___fladd@b+1,f
  5541     0EA5                     u3691:
  5542     0EA5  0826               	movf	___fladd@a+2,w
  5543     0EA6  1103               	clrz
  5544     0EA7  1803               	skipnc
  5545     0EA8  3E01               	addlw	1
  5546     0EA9  1903               	skipnz
  5547     0EAA  2EAC               	goto	u3692
  5548     0EAB  07A2               	addwf	___fladd@b+2,f
  5549     0EAC                     u3692:
  5550     0EAC  0827               	movf	___fladd@a+3,w
  5551     0EAD  1103               	clrz
  5552     0EAE  1803               	skipnc
  5553     0EAF  3E01               	addlw	1
  5554     0EB0  1903               	skipnz
  5555     0EB1  2EB3               	goto	u3693
  5556     0EB2  07A3               	addwf	___fladd@b+3,f
  5557     0EB3                     u3693:
  5558     0EB3                     l3081:
  5559     0EB3  1C23               	btfss	___fladd@b+3,0
  5560     0EB4  2EB6               	goto	u3701
  5561     0EB5  2EB7               	goto	u3700
  5562     0EB6                     u3701:
  5563     0EB6  2F8B               	goto	l3133
  5564     0EB7                     u3700:
  5565     0EB7                     l3083:
  5566     0EB7  1C75               	btfss	___fladd@grs,0
  5567     0EB8  2EBA               	goto	u3711
  5568     0EB9  2EBB               	goto	u3710
  5569     0EBA                     u3711:
  5570     0EBA  2EC2               	goto	l3087
  5571     0EBB                     u3710:
  5572     0EBB                     l3085:
  5573     0EBB  0875               	movf	___fladd@grs,w
  5574     0EBC  00A8               	movwf	??___fladd
  5575     0EBD  1003               	clrc
  5576     0EBE  0C28               	rrf	??___fladd,w
  5577     0EBF  3801               	iorlw	1
  5578     0EC0  00F5               	movwf	___fladd@grs
  5579     0EC1  2EC4               	goto	l3089
  5580     0EC2                     l3087:
  5581     0EC2  1003               	clrc
  5582     0EC3  0CF5               	rrf	___fladd@grs,f
  5583     0EC4                     l3089:
  5584     0EC4  1C20               	btfss	___fladd@b,0
  5585     0EC5  2EC7               	goto	u3721
  5586     0EC6  2EC8               	goto	u3720
  5587     0EC7                     u3721:
  5588     0EC7  2EC9               	goto	l3093
  5589     0EC8                     u3720:
  5590     0EC8                     l3091:
  5591     0EC8  17F5               	bsf	___fladd@grs,7
  5592     0EC9                     l3093:
  5593     0EC9  3001               	movlw	1
  5594     0ECA  00A8               	movwf	??___fladd
  5595     0ECB                     u3735:
  5596     0ECB  0D23               	rlf	___fladd@b+3,w
  5597     0ECC  0CA3               	rrf	___fladd@b+3,f
  5598     0ECD  0CA2               	rrf	___fladd@b+2,f
  5599     0ECE  0CA1               	rrf	___fladd@b+1,f
  5600     0ECF  0CA0               	rrf	___fladd@b,f
  5601     0ED0  0BA8               	decfsz	??___fladd& (0+127),f
  5602     0ED1  2ECB               	goto	u3735
  5603     0ED2                     l3095:
  5604     0ED2  3001               	movlw	1
  5605     0ED3  07F4               	addwf	___fladd@bexp,f
  5606     0ED4  2F8B               	goto	l3133
  5607     0ED5                     l3097:
  5608     0ED5  1283               	bcf	3,5	;RP0=0, select bank0
  5609     0ED6  1303               	bcf	3,6	;RP1=0, select bank0
  5610     0ED7  0823               	movf	___fladd@b+3,w
  5611     0ED8  3A80               	xorlw	128
  5612     0ED9  00FF               	movwf	btemp+1
  5613     0EDA  0827               	movf	___fladd@a+3,w
  5614     0EDB  3A80               	xorlw	128
  5615     0EDC  027F               	subwf	btemp+1,w
  5616     0EDD  1D03               	skipz
  5617     0EDE  2EE9               	goto	u3743
  5618     0EDF  0826               	movf	___fladd@a+2,w
  5619     0EE0  0222               	subwf	___fladd@b+2,w
  5620     0EE1  1D03               	skipz
  5621     0EE2  2EE9               	goto	u3743
  5622     0EE3  0825               	movf	___fladd@a+1,w
  5623     0EE4  0221               	subwf	___fladd@b+1,w
  5624     0EE5  1D03               	skipz
  5625     0EE6  2EE9               	goto	u3743
  5626     0EE7  0824               	movf	___fladd@a,w
  5627     0EE8  0220               	subwf	___fladd@b,w
  5628     0EE9                     u3743:
  5629     0EE9  1803               	skipnc
  5630     0EEA  2EEC               	goto	u3741
  5631     0EEB  2EED               	goto	u3740
  5632     0EEC                     u3741:
  5633     0EEC  2F44               	goto	l3109
  5634     0EED                     u3740:
  5635     0EED                     l3099:
  5636     0EED  30FF               	movlw	255
  5637     0EEE  00A8               	movwf	??___fladd
  5638     0EEF  30FF               	movlw	255
  5639     0EF0  00A9               	movwf	??___fladd+1
  5640     0EF1  30FF               	movlw	255
  5641     0EF2  00AA               	movwf	??___fladd+2
  5642     0EF3  30FF               	movlw	255
  5643     0EF4  00AB               	movwf	??___fladd+3
  5644     0EF5  0824               	movf	___fladd@a,w
  5645     0EF6  00AC               	movwf	??___fladd+4
  5646     0EF7  0825               	movf	___fladd@a+1,w
  5647     0EF8  00AD               	movwf	??___fladd+5
  5648     0EF9  0826               	movf	___fladd@a+2,w
  5649     0EFA  00AE               	movwf	??___fladd+6
  5650     0EFB  0827               	movf	___fladd@a+3,w
  5651     0EFC  00AF               	movwf	??___fladd+7
  5652     0EFD  0820               	movf	___fladd@b,w
  5653     0EFE  02AC               	subwf	??___fladd+4,f
  5654     0EFF  0821               	movf	___fladd@b+1,w
  5655     0F00  1C03               	skipc
  5656     0F01  0F21               	incfsz	___fladd@b+1,w
  5657     0F02  2F04               	goto	u3751
  5658     0F03  2F05               	goto	u3752
  5659     0F04                     u3751:
  5660     0F04  02AD               	subwf	??___fladd+5,f
  5661     0F05                     u3752:
  5662     0F05  0822               	movf	___fladd@b+2,w
  5663     0F06  1C03               	skipc
  5664     0F07  0F22               	incfsz	___fladd@b+2,w
  5665     0F08  2F0A               	goto	u3753
  5666     0F09  2F0B               	goto	u3754
  5667     0F0A                     u3753:
  5668     0F0A  02AE               	subwf	??___fladd+6,f
  5669     0F0B                     u3754:
  5670     0F0B  0823               	movf	___fladd@b+3,w
  5671     0F0C  1C03               	skipc
  5672     0F0D  0F23               	incfsz	___fladd@b+3,w
  5673     0F0E  2F10               	goto	u3755
  5674     0F0F  2F11               	goto	u3756
  5675     0F10                     u3755:
  5676     0F10  02AF               	subwf	??___fladd+7,f
  5677     0F11                     u3756:
  5678     0F11  082C               	movf	??___fladd+4,w
  5679     0F12  07A8               	addwf	??___fladd,f
  5680     0F13  082D               	movf	??___fladd+5,w
  5681     0F14  1803               	skipnc
  5682     0F15  0F2D               	incfsz	??___fladd+5,w
  5683     0F16  2F18               	goto	u3760
  5684     0F17  2F19               	goto	u3761
  5685     0F18                     u3760:
  5686     0F18  07A9               	addwf	??___fladd+1,f
  5687     0F19                     u3761:
  5688     0F19  082E               	movf	??___fladd+6,w
  5689     0F1A  1803               	skipnc
  5690     0F1B  0F2E               	incfsz	??___fladd+6,w
  5691     0F1C  2F1E               	goto	u3762
  5692     0F1D  2F1F               	goto	u3763
  5693     0F1E                     u3762:
  5694     0F1E  07AA               	addwf	??___fladd+2,f
  5695     0F1F                     u3763:
  5696     0F1F  082F               	movf	??___fladd+7,w
  5697     0F20  1803               	skipnc
  5698     0F21  0A2F               	incf	??___fladd+7,w
  5699     0F22  07AB               	addwf	??___fladd+3,f
  5700     0F23  082B               	movf	??___fladd+3,w
  5701     0F24  00A3               	movwf	___fladd@b+3
  5702     0F25  082A               	movf	??___fladd+2,w
  5703     0F26  00A2               	movwf	___fladd@b+2
  5704     0F27  0829               	movf	??___fladd+1,w
  5705     0F28  00A1               	movwf	___fladd@b+1
  5706     0F29  0828               	movf	??___fladd,w
  5707     0F2A  00A0               	movwf	___fladd@b
  5708     0F2B                     l3101:
  5709     0F2B  3080               	movlw	128
  5710     0F2C  06F2               	xorwf	___fladd@signs,f
  5711     0F2D                     l3103:
  5712     0F2D  0375               	decf	___fladd@grs,w
  5713     0F2E  3AFF               	xorlw	255
  5714     0F2F  00F5               	movwf	___fladd@grs
  5715     0F30                     l3105:
  5716     0F30  0875               	movf	___fladd@grs,w
  5717     0F31  1D03               	btfss	3,2
  5718     0F32  2F34               	goto	u3771
  5719     0F33  2F35               	goto	u3770
  5720     0F34                     u3771:
  5721     0F34  2F52               	goto	l761
  5722     0F35                     u3770:
  5723     0F35                     l3107:
  5724     0F35  3001               	movlw	1
  5725     0F36  07A0               	addwf	___fladd@b,f
  5726     0F37  3000               	movlw	0
  5727     0F38  1803               	skipnc
  5728     0F39  3001               	movlw	1
  5729     0F3A  07A1               	addwf	___fladd@b+1,f
  5730     0F3B  3000               	movlw	0
  5731     0F3C  1803               	skipnc
  5732     0F3D  3001               	movlw	1
  5733     0F3E  07A2               	addwf	___fladd@b+2,f
  5734     0F3F  3000               	movlw	0
  5735     0F40  1803               	skipnc
  5736     0F41  3001               	movlw	1
  5737     0F42  07A3               	addwf	___fladd@b+3,f
  5738     0F43  2F52               	goto	l761
  5739     0F44                     l3109:
  5740     0F44  0824               	movf	___fladd@a,w
  5741     0F45  02A0               	subwf	___fladd@b,f
  5742     0F46  0825               	movf	___fladd@a+1,w
  5743     0F47  1C03               	skipc
  5744     0F48  0F25               	incfsz	___fladd@a+1,w
  5745     0F49  02A1               	subwf	___fladd@b+1,f
  5746     0F4A  0826               	movf	___fladd@a+2,w
  5747     0F4B  1C03               	skipc
  5748     0F4C  0F26               	incfsz	___fladd@a+2,w
  5749     0F4D  02A2               	subwf	___fladd@b+2,f
  5750     0F4E  0827               	movf	___fladd@a+3,w
  5751     0F4F  1C03               	skipc
  5752     0F50  0F27               	incfsz	___fladd@a+3,w
  5753     0F51  02A3               	subwf	___fladd@b+3,f
  5754     0F52                     l761:
  5755     0F52  0823               	movf	___fladd@b+3,w
  5756     0F53  0422               	iorwf	___fladd@b+2,w
  5757     0F54  0421               	iorwf	___fladd@b+1,w
  5758     0F55  0420               	iorwf	___fladd@b,w
  5759     0F56  1D03               	skipz
  5760     0F57  2F59               	goto	u3781
  5761     0F58  2F5A               	goto	u3780
  5762     0F59                     u3781:
  5763     0F59  2F87               	goto	l3131
  5764     0F5A                     u3780:
  5765     0F5A                     l3111:
  5766     0F5A  0875               	movf	___fladd@grs,w
  5767     0F5B  1D03               	btfss	3,2
  5768     0F5C  2F5E               	goto	u3791
  5769     0F5D  2F5F               	goto	u3790
  5770     0F5E                     u3791:
  5771     0F5E  2F87               	goto	l3131
  5772     0F5F                     u3790:
  5773     0F5F                     l3113:
  5774     0F5F  3000               	movlw	0
  5775     0F60  00A3               	movwf	?___fladd+3
  5776     0F61  3000               	movlw	0
  5777     0F62  00A2               	movwf	?___fladd+2
  5778     0F63  3000               	movlw	0
  5779     0F64  00A1               	movwf	?___fladd+1
  5780     0F65  3000               	movlw	0
  5781     0F66  00A0               	movwf	?___fladd
  5782     0F67  2FFF               	goto	l753
  5783     0F68                     l3117:
  5784     0F68  3001               	movlw	1
  5785     0F69  00A8               	movwf	??___fladd
  5786     0F6A                     u3805:
  5787     0F6A  1003               	clrc
  5788     0F6B  0DA0               	rlf	___fladd@b,f
  5789     0F6C  0DA1               	rlf	___fladd@b+1,f
  5790     0F6D  0DA2               	rlf	___fladd@b+2,f
  5791     0F6E  0DA3               	rlf	___fladd@b+3,f
  5792     0F6F  0BA8               	decfsz	??___fladd,f
  5793     0F70  2F6A               	goto	u3805
  5794     0F71                     l3119:
  5795     0F71  1FF5               	btfss	___fladd@grs,7
  5796     0F72  2F74               	goto	u3811
  5797     0F73  2F75               	goto	u3810
  5798     0F74                     u3811:
  5799     0F74  2F76               	goto	l765
  5800     0F75                     u3810:
  5801     0F75                     l3121:
  5802     0F75  1420               	bsf	___fladd@b,0
  5803     0F76                     l765:
  5804     0F76  1C75               	btfss	___fladd@grs,0
  5805     0F77  2F79               	goto	u3821
  5806     0F78  2F7A               	goto	u3820
  5807     0F79                     u3821:
  5808     0F79  2F7E               	goto	l3125
  5809     0F7A                     u3820:
  5810     0F7A                     l3123:
  5811     0F7A  1403               	setc
  5812     0F7B  0D75               	rlf	___fladd@grs,w
  5813     0F7C  00F5               	movwf	___fladd@grs
  5814     0F7D  2F80               	goto	l3127
  5815     0F7E                     l3125:
  5816     0F7E  1003               	clrc
  5817     0F7F  0DF5               	rlf	___fladd@grs,f
  5818     0F80                     l3127:
  5819     0F80  0874               	movf	___fladd@bexp,w
  5820     0F81  1903               	btfsc	3,2
  5821     0F82  2F84               	goto	u3831
  5822     0F83  2F85               	goto	u3830
  5823     0F84                     u3831:
  5824     0F84  2F87               	goto	l3131
  5825     0F85                     u3830:
  5826     0F85                     l3129:
  5827     0F85  3001               	movlw	1
  5828     0F86  02F4               	subwf	___fladd@bexp,f
  5829     0F87                     l3131:
  5830     0F87  1FA2               	btfss	___fladd@b+2,7
  5831     0F88  2F8A               	goto	u3841
  5832     0F89  2F8B               	goto	u3840
  5833     0F8A                     u3841:
  5834     0F8A  2F68               	goto	l3117
  5835     0F8B                     u3840:
  5836     0F8B                     l3133:
  5837     0F8B  01F3               	clrf	___fladd@aexp
  5838     0F8C                     l3135:
  5839     0F8C  1FF5               	btfss	___fladd@grs,7
  5840     0F8D  2F8F               	goto	u3851
  5841     0F8E  2F90               	goto	u3850
  5842     0F8F                     u3851:
  5843     0F8F  2F9E               	goto	l3143
  5844     0F90                     u3850:
  5845     0F90                     l3137:
  5846     0F90  0875               	movf	___fladd@grs,w
  5847     0F91  397F               	andlw	127
  5848     0F92  1903               	btfsc	3,2
  5849     0F93  2F95               	goto	u3861
  5850     0F94  2F96               	goto	u3860
  5851     0F95                     u3861:
  5852     0F95  2F99               	goto	l771
  5853     0F96                     u3860:
  5854     0F96                     l3139:
  5855     0F96  3001               	movlw	1
  5856     0F97  00F3               	movwf	___fladd@aexp
  5857     0F98  2F9E               	goto	l3143
  5858     0F99                     l771:
  5859     0F99  1C20               	btfss	___fladd@b,0
  5860     0F9A  2F9C               	goto	u3871
  5861     0F9B  2F9D               	goto	u3870
  5862     0F9C                     u3871:
  5863     0F9C  2F9E               	goto	l3143
  5864     0F9D                     u3870:
  5865     0F9D  2F96               	goto	l3139
  5866     0F9E                     l3143:
  5867     0F9E  0873               	movf	___fladd@aexp,w
  5868     0F9F  1903               	btfsc	3,2
  5869     0FA0  2FA2               	goto	u3881
  5870     0FA1  2FA3               	goto	u3880
  5871     0FA2                     u3881:
  5872     0FA2  2FD5               	goto	l774
  5873     0FA3                     u3880:
  5874     0FA3                     l3145:
  5875     0FA3  3001               	movlw	1
  5876     0FA4  07A0               	addwf	___fladd@b,f
  5877     0FA5  3000               	movlw	0
  5878     0FA6  1803               	skipnc
  5879     0FA7  3001               	movlw	1
  5880     0FA8  07A1               	addwf	___fladd@b+1,f
  5881     0FA9  3000               	movlw	0
  5882     0FAA  1803               	skipnc
  5883     0FAB  3001               	movlw	1
  5884     0FAC  07A2               	addwf	___fladd@b+2,f
  5885     0FAD  3000               	movlw	0
  5886     0FAE  1803               	skipnc
  5887     0FAF  3001               	movlw	1
  5888     0FB0  07A3               	addwf	___fladd@b+3,f
  5889     0FB1                     l3147:
  5890     0FB1  1C23               	btfss	___fladd@b+3,0
  5891     0FB2  2FB4               	goto	u3891
  5892     0FB3  2FB5               	goto	u3890
  5893     0FB4                     u3891:
  5894     0FB4  2FD5               	goto	l774
  5895     0FB5                     u3890:
  5896     0FB5                     l3149:
  5897     0FB5  0820               	movf	___fladd@b,w
  5898     0FB6  00A8               	movwf	??___fladd
  5899     0FB7  0821               	movf	___fladd@b+1,w
  5900     0FB8  00A9               	movwf	??___fladd+1
  5901     0FB9  0822               	movf	___fladd@b+2,w
  5902     0FBA  00AA               	movwf	??___fladd+2
  5903     0FBB  0823               	movf	___fladd@b+3,w
  5904     0FBC  00AB               	movwf	??___fladd+3
  5905     0FBD  3001               	movlw	1
  5906     0FBE  00AC               	movwf	??___fladd+4
  5907     0FBF                     u3905:
  5908     0FBF  0D2B               	rlf	??___fladd+3,w
  5909     0FC0  0CAB               	rrf	??___fladd+3,f
  5910     0FC1  0CAA               	rrf	??___fladd+2,f
  5911     0FC2  0CA9               	rrf	??___fladd+1,f
  5912     0FC3  0CA8               	rrf	??___fladd,f
  5913     0FC4                     u3900:
  5914     0FC4  0BAC               	decfsz	??___fladd+4,f
  5915     0FC5  2FBF               	goto	u3905
  5916     0FC6  082B               	movf	??___fladd+3,w
  5917     0FC7  00A3               	movwf	___fladd@b+3
  5918     0FC8  082A               	movf	??___fladd+2,w
  5919     0FC9  00A2               	movwf	___fladd@b+2
  5920     0FCA  0829               	movf	??___fladd+1,w
  5921     0FCB  00A1               	movwf	___fladd@b+1
  5922     0FCC  0828               	movf	??___fladd,w
  5923     0FCD  00A0               	movwf	___fladd@b
  5924     0FCE  0A74               	incf	___fladd@bexp,w
  5925     0FCF  1903               	btfsc	3,2
  5926     0FD0  2FD2               	goto	u3911
  5927     0FD1  2FD3               	goto	u3910
  5928     0FD2                     u3911:
  5929     0FD2  2FD5               	goto	l774
  5930     0FD3                     u3910:
  5931     0FD3                     l3151:
  5932     0FD3  3001               	movlw	1
  5933     0FD4  07F4               	addwf	___fladd@bexp,f
  5934     0FD5                     l774:
  5935     0FD5  0A74               	incf	___fladd@bexp,w
  5936     0FD6  1903               	btfsc	3,2
  5937     0FD7  2FD9               	goto	u3921
  5938     0FD8  2FDA               	goto	u3920
  5939     0FD9                     u3921:
  5940     0FD9  2FDF               	goto	l3155
  5941     0FDA                     u3920:
  5942     0FDA                     l3153:
  5943     0FDA  0874               	movf	___fladd@bexp,w
  5944     0FDB  1D03               	btfss	3,2
  5945     0FDC  2FDE               	goto	u3931
  5946     0FDD  2FDF               	goto	u3930
  5947     0FDE                     u3931:
  5948     0FDE  2FED               	goto	l3161
  5949     0FDF                     u3930:
  5950     0FDF                     l3155:
  5951     0FDF  3000               	movlw	0
  5952     0FE0  00A3               	movwf	___fladd@b+3
  5953     0FE1  3000               	movlw	0
  5954     0FE2  00A2               	movwf	___fladd@b+2
  5955     0FE3  3000               	movlw	0
  5956     0FE4  00A1               	movwf	___fladd@b+1
  5957     0FE5  3000               	movlw	0
  5958     0FE6  00A0               	movwf	___fladd@b
  5959     0FE7                     l3157:
  5960     0FE7  0874               	movf	___fladd@bexp,w
  5961     0FE8  1D03               	btfss	3,2
  5962     0FE9  2FEB               	goto	u3941
  5963     0FEA  2FEC               	goto	u3940
  5964     0FEB                     u3941:
  5965     0FEB  2FED               	goto	l3161
  5966     0FEC                     u3940:
  5967     0FEC                     l3159:
  5968     0FEC  01F2               	clrf	___fladd@signs
  5969     0FED                     l3161:
  5970     0FED  1C74               	btfss	___fladd@bexp,0
  5971     0FEE  2FF0               	goto	u3951
  5972     0FEF  2FF1               	goto	u3950
  5973     0FF0                     u3951:
  5974     0FF0  2FF3               	goto	l3165
  5975     0FF1                     u3950:
  5976     0FF1                     l3163:
  5977     0FF1  17A2               	bsf	___fladd@b+2,7
  5978     0FF2  2FF5               	goto	l782
  5979     0FF3                     l3165:
  5980     0FF3  307F               	movlw	127
  5981     0FF4  05A2               	andwf	___fladd@b+2,f
  5982     0FF5                     l782:
  5983     0FF5  0874               	movf	___fladd@bexp,w
  5984     0FF6  00A8               	movwf	??___fladd
  5985     0FF7  1003               	clrc
  5986     0FF8  0C28               	rrf	??___fladd,w
  5987     0FF9  00A3               	movwf	___fladd@b+3
  5988     0FFA                     l3167:
  5989     0FFA  1FF2               	btfss	___fladd@signs,7
  5990     0FFB  2FFD               	goto	u3961
  5991     0FFC  2FFE               	goto	u3960
  5992     0FFD                     u3961:
  5993     0FFD  2FFF               	goto	l783
  5994     0FFE                     u3960:
  5995     0FFE                     l3169:
  5996     0FFE  17A3               	bsf	___fladd@b+3,7
  5997     0FFF                     l783:
  5998     0FFF                     l753:
  5999     0FFF  0008               	return
  6000     1000                     __end_of___fladd:
  6001                           
  6002                           	psect	text12
  6003     0401                     __ptext12:	
  6004 ;; *************** function ___flmul *****************
  6005 ;; Defined at:
  6006 ;;		line 8 in file "C:\Program Files\Microchip\xc8\v3.00\pic\sources\c99\common\sprcmul.c"
  6007 ;; Parameters:    Size  Location     Type
  6008 ;;  b               4   10[BANK0 ] unsigned char 
  6009 ;;  a               4   14[BANK0 ] unsigned char 
  6010 ;; Auto vars:     Size  Location     Type
  6011 ;;  prod            4   30[BANK0 ] struct .
  6012 ;;  grs             4   25[BANK0 ] unsigned long 
  6013 ;;  temp            2   34[BANK0 ] struct .
  6014 ;;  bexp            1   29[BANK0 ] unsigned char 
  6015 ;;  aexp            1   24[BANK0 ] unsigned char 
  6016 ;;  sign            1   23[BANK0 ] unsigned char 
  6017 ;; Return value:  Size  Location     Type
  6018 ;;                  4   10[BANK0 ] unsigned char 
  6019 ;; Registers used:
  6020 ;;		wreg, status,2, status,0, btemp+1, pclath, cstack
  6021 ;; Tracked objects:
  6022 ;;		On entry : 0/0
  6023 ;;		On exit  : 0/0
  6024 ;;		Unchanged: 0/0
  6025 ;; Data sizes:     COMMON   BANK0   BANK1   BANK3   BANK2
  6026 ;;      Params:         0       8       0       0       0
  6027 ;;      Locals:         0      13       0       0       0
  6028 ;;      Temps:          0       5       0       0       0
  6029 ;;      Totals:         0      26       0       0       0
  6030 ;;Total ram usage:       26 bytes
  6031 ;; Hardware stack levels used: 1
  6032 ;; Hardware stack levels required when called: 2
  6033 ;; This function calls:
  6034 ;;		__Umul8_16
  6035 ;; This function is called by:
  6036 ;;		_run_program
  6037 ;; This function uses a non-reentrant model
  6038 ;;
  6039                           
  6040     0401                     ___flmul:	
  6041                           ;psect for function ___flmul
  6042                           
  6043     0401                     l3375:	
  6044                           ;incstack = 0
  6045                           ; Regs used in ___flmul: [wreg+status,2+status,0+btemp+1+pclath+cstack]
  6046                           
  6047     0401  1283               	bcf	3,5	;RP0=0, select bank0
  6048     0402  1303               	bcf	3,6	;RP1=0, select bank0
  6049     0403  082D               	movf	___flmul@b+3,w
  6050     0404  00B7               	movwf	___flmul@sign
  6051     0405                     l3377:
  6052     0405  3080               	movlw	128
  6053     0406  05B7               	andwf	___flmul@sign,f
  6054     0407                     l3379:
  6055     0407  082D               	movf	___flmul@b+3,w
  6056     0408  00B2               	movwf	??___flmul
  6057     0409  0732               	addwf	??___flmul,w
  6058     040A  00BD               	movwf	___flmul@bexp
  6059     040B                     l3381:
  6060     040B  1FAC               	btfss	___flmul@b+2,7
  6061     040C  2C0E               	goto	u4421
  6062     040D  2C0F               	goto	u4420
  6063     040E                     u4421:
  6064     040E  2C10               	goto	l3385
  6065     040F                     u4420:
  6066     040F                     l3383:
  6067     040F  143D               	bsf	___flmul@bexp,0
  6068     0410                     l3385:
  6069     0410  083D               	movf	___flmul@bexp,w
  6070     0411  1903               	btfsc	3,2
  6071     0412  2C14               	goto	u4431
  6072     0413  2C15               	goto	u4430
  6073     0414                     u4431:
  6074     0414  2C24               	goto	l3393
  6075     0415                     u4430:
  6076     0415                     l3387:
  6077     0415  0A3D               	incf	___flmul@bexp,w
  6078     0416  1D03               	btfss	3,2
  6079     0417  2C19               	goto	u4441
  6080     0418  2C1A               	goto	u4440
  6081     0419                     u4441:
  6082     0419  2C22               	goto	l3391
  6083     041A                     u4440:
  6084     041A                     l3389:
  6085     041A  3000               	movlw	0
  6086     041B  00AD               	movwf	___flmul@b+3
  6087     041C  3000               	movlw	0
  6088     041D  00AC               	movwf	___flmul@b+2
  6089     041E  3000               	movlw	0
  6090     041F  00AB               	movwf	___flmul@b+1
  6091     0420  3000               	movlw	0
  6092     0421  00AA               	movwf	___flmul@b
  6093     0422                     l3391:
  6094     0422  17AC               	bsf	___flmul@b+2,7
  6095     0423  2C2C               	goto	l3395
  6096     0424                     l3393:
  6097     0424  3000               	movlw	0
  6098     0425  00AD               	movwf	___flmul@b+3
  6099     0426  3000               	movlw	0
  6100     0427  00AC               	movwf	___flmul@b+2
  6101     0428  3000               	movlw	0
  6102     0429  00AB               	movwf	___flmul@b+1
  6103     042A  3000               	movlw	0
  6104     042B  00AA               	movwf	___flmul@b
  6105     042C                     l3395:
  6106     042C  0831               	movf	___flmul@a+3,w
  6107     042D  3980               	andlw	128
  6108     042E  06B7               	xorwf	___flmul@sign,f
  6109     042F                     l3397:
  6110     042F  0831               	movf	___flmul@a+3,w
  6111     0430  00B2               	movwf	??___flmul
  6112     0431  0732               	addwf	??___flmul,w
  6113     0432  00B8               	movwf	___flmul@aexp
  6114     0433                     l3399:
  6115     0433  1FB0               	btfss	___flmul@a+2,7
  6116     0434  2C36               	goto	u4451
  6117     0435  2C37               	goto	u4450
  6118     0436                     u4451:
  6119     0436  2C38               	goto	l3403
  6120     0437                     u4450:
  6121     0437                     l3401:
  6122     0437  1438               	bsf	___flmul@aexp,0
  6123     0438                     l3403:
  6124     0438  0838               	movf	___flmul@aexp,w
  6125     0439  1903               	btfsc	3,2
  6126     043A  2C3C               	goto	u4461
  6127     043B  2C3D               	goto	u4460
  6128     043C                     u4461:
  6129     043C  2C4C               	goto	l3411
  6130     043D                     u4460:
  6131     043D                     l3405:
  6132     043D  0A38               	incf	___flmul@aexp,w
  6133     043E  1D03               	btfss	3,2
  6134     043F  2C41               	goto	u4471
  6135     0440  2C42               	goto	u4470
  6136     0441                     u4471:
  6137     0441  2C4A               	goto	l3409
  6138     0442                     u4470:
  6139     0442                     l3407:
  6140     0442  3000               	movlw	0
  6141     0443  00B1               	movwf	___flmul@a+3
  6142     0444  3000               	movlw	0
  6143     0445  00B0               	movwf	___flmul@a+2
  6144     0446  3000               	movlw	0
  6145     0447  00AF               	movwf	___flmul@a+1
  6146     0448  3000               	movlw	0
  6147     0449  00AE               	movwf	___flmul@a
  6148     044A                     l3409:
  6149     044A  17B0               	bsf	___flmul@a+2,7
  6150     044B  2C54               	goto	l3413
  6151     044C                     l3411:
  6152     044C  3000               	movlw	0
  6153     044D  00B1               	movwf	___flmul@a+3
  6154     044E  3000               	movlw	0
  6155     044F  00B0               	movwf	___flmul@a+2
  6156     0450  3000               	movlw	0
  6157     0451  00AF               	movwf	___flmul@a+1
  6158     0452  3000               	movlw	0
  6159     0453  00AE               	movwf	___flmul@a
  6160     0454                     l3413:
  6161     0454  0838               	movf	___flmul@aexp,w
  6162     0455  1903               	btfsc	3,2
  6163     0456  2C58               	goto	u4481
  6164     0457  2C59               	goto	u4480
  6165     0458                     u4481:
  6166     0458  2C5E               	goto	l3417
  6167     0459                     u4480:
  6168     0459                     l3415:
  6169     0459  083D               	movf	___flmul@bexp,w
  6170     045A  1D03               	btfss	3,2
  6171     045B  2C5D               	goto	u4491
  6172     045C  2C5E               	goto	u4490
  6173     045D                     u4491:
  6174     045D  2C67               	goto	l3421
  6175     045E                     u4490:
  6176     045E                     l3417:
  6177     045E  3000               	movlw	0
  6178     045F  00AD               	movwf	?___flmul+3
  6179     0460  3000               	movlw	0
  6180     0461  00AC               	movwf	?___flmul+2
  6181     0462  3000               	movlw	0
  6182     0463  00AB               	movwf	?___flmul+1
  6183     0464  3000               	movlw	0
  6184     0465  00AA               	movwf	?___flmul
  6185     0466  2F42               	goto	l836
  6186     0467                     l3421:
  6187     0467  082A               	movf	___flmul@b,w
  6188     0468  00F2               	movwf	__Umul8_16@multiplicand
  6189     0469  0830               	movf	___flmul@a+2,w
  6190     046A  120A  158A  2008  120A  118A  	fcall	__Umul8_16
  6191     046F  0873               	movf	?__Umul8_16+1,w
  6192     0470  1283               	bcf	3,5	;RP0=0, select bank0
  6193     0471  1303               	bcf	3,6	;RP1=0, select bank0
  6194     0472  00C3               	movwf	___flmul@temp+1
  6195     0473  0872               	movf	?__Umul8_16,w
  6196     0474  00C2               	movwf	___flmul@temp
  6197     0475                     l3423:
  6198     0475  0842               	movf	___flmul@temp,w
  6199     0476  00B2               	movwf	??___flmul
  6200     0477  01B3               	clrf	??___flmul+1
  6201     0478  01B4               	clrf	??___flmul+2
  6202     0479  01B5               	clrf	??___flmul+3
  6203     047A  0835               	movf	??___flmul+3,w
  6204     047B  00BC               	movwf	___flmul@grs+3
  6205     047C  0834               	movf	??___flmul+2,w
  6206     047D  00BB               	movwf	___flmul@grs+2
  6207     047E  0833               	movf	??___flmul+1,w
  6208     047F  00BA               	movwf	___flmul@grs+1
  6209     0480  0832               	movf	??___flmul,w
  6210     0481  00B9               	movwf	___flmul@grs
  6211     0482                     l3425:
  6212     0482  0843               	movf	___flmul@temp+1,w
  6213     0483  00B2               	movwf	??___flmul
  6214     0484  01B3               	clrf	??___flmul+1
  6215     0485  01B4               	clrf	??___flmul+2
  6216     0486  01B5               	clrf	??___flmul+3
  6217     0487  0835               	movf	??___flmul+3,w
  6218     0488  00C1               	movwf	___flmul@prod+3
  6219     0489  0834               	movf	??___flmul+2,w
  6220     048A  00C0               	movwf	___flmul@prod+2
  6221     048B  0833               	movf	??___flmul+1,w
  6222     048C  00BF               	movwf	___flmul@prod+1
  6223     048D  0832               	movf	??___flmul,w
  6224     048E  00BE               	movwf	___flmul@prod
  6225     048F  082B               	movf	___flmul@b+1,w
  6226     0490  00F2               	movwf	__Umul8_16@multiplicand
  6227     0491  082F               	movf	___flmul@a+1,w
  6228     0492  120A  158A  2008  120A  118A  	fcall	__Umul8_16
  6229     0497  0873               	movf	?__Umul8_16+1,w
  6230     0498  1283               	bcf	3,5	;RP0=0, select bank0
  6231     0499  1303               	bcf	3,6	;RP1=0, select bank0
  6232     049A  00C3               	movwf	___flmul@temp+1
  6233     049B  0872               	movf	?__Umul8_16,w
  6234     049C  00C2               	movwf	___flmul@temp
  6235     049D                     l3427:
  6236     049D  0842               	movf	___flmul@temp,w
  6237     049E  00B2               	movwf	??___flmul
  6238     049F  01B3               	clrf	??___flmul+1
  6239     04A0  01B4               	clrf	??___flmul+2
  6240     04A1  01B5               	clrf	??___flmul+3
  6241     04A2  0832               	movf	??___flmul,w
  6242     04A3  07B9               	addwf	___flmul@grs,f
  6243     04A4  0833               	movf	??___flmul+1,w
  6244     04A5  1103               	clrz
  6245     04A6  1803               	skipnc
  6246     04A7  3E01               	addlw	1
  6247     04A8  1903               	skipnz
  6248     04A9  2CAB               	goto	u4501
  6249     04AA  07BA               	addwf	___flmul@grs+1,f
  6250     04AB                     u4501:
  6251     04AB  0834               	movf	??___flmul+2,w
  6252     04AC  1103               	clrz
  6253     04AD  1803               	skipnc
  6254     04AE  3E01               	addlw	1
  6255     04AF  1903               	skipnz
  6256     04B0  2CB2               	goto	u4502
  6257     04B1  07BB               	addwf	___flmul@grs+2,f
  6258     04B2                     u4502:
  6259     04B2  0835               	movf	??___flmul+3,w
  6260     04B3  1103               	clrz
  6261     04B4  1803               	skipnc
  6262     04B5  3E01               	addlw	1
  6263     04B6  1903               	skipnz
  6264     04B7  2CB9               	goto	u4503
  6265     04B8  07BC               	addwf	___flmul@grs+3,f
  6266     04B9                     u4503:
  6267     04B9                     l3429:
  6268     04B9  0843               	movf	___flmul@temp+1,w
  6269     04BA  00B2               	movwf	??___flmul
  6270     04BB  01B3               	clrf	??___flmul+1
  6271     04BC  01B4               	clrf	??___flmul+2
  6272     04BD  01B5               	clrf	??___flmul+3
  6273     04BE  0832               	movf	??___flmul,w
  6274     04BF  07BE               	addwf	___flmul@prod,f
  6275     04C0  0833               	movf	??___flmul+1,w
  6276     04C1  1103               	clrz
  6277     04C2  1803               	skipnc
  6278     04C3  3E01               	addlw	1
  6279     04C4  1903               	skipnz
  6280     04C5  2CC7               	goto	u4511
  6281     04C6  07BF               	addwf	___flmul@prod+1,f
  6282     04C7                     u4511:
  6283     04C7  0834               	movf	??___flmul+2,w
  6284     04C8  1103               	clrz
  6285     04C9  1803               	skipnc
  6286     04CA  3E01               	addlw	1
  6287     04CB  1903               	skipnz
  6288     04CC  2CCE               	goto	u4512
  6289     04CD  07C0               	addwf	___flmul@prod+2,f
  6290     04CE                     u4512:
  6291     04CE  0835               	movf	??___flmul+3,w
  6292     04CF  1103               	clrz
  6293     04D0  1803               	skipnc
  6294     04D1  3E01               	addlw	1
  6295     04D2  1903               	skipnz
  6296     04D3  2CD5               	goto	u4513
  6297     04D4  07C1               	addwf	___flmul@prod+3,f
  6298     04D5                     u4513:
  6299     04D5  082C               	movf	___flmul@b+2,w
  6300     04D6  00F2               	movwf	__Umul8_16@multiplicand
  6301     04D7  082E               	movf	___flmul@a,w
  6302     04D8  120A  158A  2008  120A  118A  	fcall	__Umul8_16
  6303     04DD  0873               	movf	?__Umul8_16+1,w
  6304     04DE  1283               	bcf	3,5	;RP0=0, select bank0
  6305     04DF  1303               	bcf	3,6	;RP1=0, select bank0
  6306     04E0  00C3               	movwf	___flmul@temp+1
  6307     04E1  0872               	movf	?__Umul8_16,w
  6308     04E2  00C2               	movwf	___flmul@temp
  6309     04E3                     l3431:
  6310     04E3  0842               	movf	___flmul@temp,w
  6311     04E4  00B2               	movwf	??___flmul
  6312     04E5  01B3               	clrf	??___flmul+1
  6313     04E6  01B4               	clrf	??___flmul+2
  6314     04E7  01B5               	clrf	??___flmul+3
  6315     04E8  0832               	movf	??___flmul,w
  6316     04E9  07B9               	addwf	___flmul@grs,f
  6317     04EA  0833               	movf	??___flmul+1,w
  6318     04EB  1103               	clrz
  6319     04EC  1803               	skipnc
  6320     04ED  3E01               	addlw	1
  6321     04EE  1903               	skipnz
  6322     04EF  2CF1               	goto	u4521
  6323     04F0  07BA               	addwf	___flmul@grs+1,f
  6324     04F1                     u4521:
  6325     04F1  0834               	movf	??___flmul+2,w
  6326     04F2  1103               	clrz
  6327     04F3  1803               	skipnc
  6328     04F4  3E01               	addlw	1
  6329     04F5  1903               	skipnz
  6330     04F6  2CF8               	goto	u4522
  6331     04F7  07BB               	addwf	___flmul@grs+2,f
  6332     04F8                     u4522:
  6333     04F8  0835               	movf	??___flmul+3,w
  6334     04F9  1103               	clrz
  6335     04FA  1803               	skipnc
  6336     04FB  3E01               	addlw	1
  6337     04FC  1903               	skipnz
  6338     04FD  2CFF               	goto	u4523
  6339     04FE  07BC               	addwf	___flmul@grs+3,f
  6340     04FF                     u4523:
  6341     04FF                     l3433:
  6342     04FF  0843               	movf	___flmul@temp+1,w
  6343     0500  00B2               	movwf	??___flmul
  6344     0501  01B3               	clrf	??___flmul+1
  6345     0502  01B4               	clrf	??___flmul+2
  6346     0503  01B5               	clrf	??___flmul+3
  6347     0504  0832               	movf	??___flmul,w
  6348     0505  07BE               	addwf	___flmul@prod,f
  6349     0506  0833               	movf	??___flmul+1,w
  6350     0507  1103               	clrz
  6351     0508  1803               	skipnc
  6352     0509  3E01               	addlw	1
  6353     050A  1903               	skipnz
  6354     050B  2D0D               	goto	u4531
  6355     050C  07BF               	addwf	___flmul@prod+1,f
  6356     050D                     u4531:
  6357     050D  0834               	movf	??___flmul+2,w
  6358     050E  1103               	clrz
  6359     050F  1803               	skipnc
  6360     0510  3E01               	addlw	1
  6361     0511  1903               	skipnz
  6362     0512  2D14               	goto	u4532
  6363     0513  07C0               	addwf	___flmul@prod+2,f
  6364     0514                     u4532:
  6365     0514  0835               	movf	??___flmul+3,w
  6366     0515  1103               	clrz
  6367     0516  1803               	skipnc
  6368     0517  3E01               	addlw	1
  6369     0518  1903               	skipnz
  6370     0519  2D1B               	goto	u4533
  6371     051A  07C1               	addwf	___flmul@prod+3,f
  6372     051B                     u4533:
  6373     051B                     l3435:
  6374     051B  3008               	movlw	8
  6375     051C  00B2               	movwf	??___flmul
  6376     051D                     u4545:
  6377     051D  1003               	clrc
  6378     051E  0DB9               	rlf	___flmul@grs,f
  6379     051F  0DBA               	rlf	___flmul@grs+1,f
  6380     0520  0DBB               	rlf	___flmul@grs+2,f
  6381     0521  0DBC               	rlf	___flmul@grs+3,f
  6382     0522  0BB2               	decfsz	??___flmul,f
  6383     0523  2D1D               	goto	u4545
  6384     0524                     l3437:
  6385     0524  082B               	movf	___flmul@b+1,w
  6386     0525  00F2               	movwf	__Umul8_16@multiplicand
  6387     0526  082E               	movf	___flmul@a,w
  6388     0527  120A  158A  2008  120A  118A  	fcall	__Umul8_16
  6389     052C  0873               	movf	?__Umul8_16+1,w
  6390     052D  1283               	bcf	3,5	;RP0=0, select bank0
  6391     052E  1303               	bcf	3,6	;RP1=0, select bank0
  6392     052F  00C3               	movwf	___flmul@temp+1
  6393     0530  0872               	movf	?__Umul8_16,w
  6394     0531  00C2               	movwf	___flmul@temp
  6395     0532                     l3439:
  6396     0532  0842               	movf	___flmul@temp,w
  6397     0533  00B2               	movwf	??___flmul
  6398     0534  0843               	movf	___flmul@temp+1,w
  6399     0535  00B3               	movwf	??___flmul+1
  6400     0536  01B4               	clrf	??___flmul+2
  6401     0537  01B5               	clrf	??___flmul+3
  6402     0538  0832               	movf	??___flmul,w
  6403     0539  07B9               	addwf	___flmul@grs,f
  6404     053A  0833               	movf	??___flmul+1,w
  6405     053B  1103               	clrz
  6406     053C  1803               	skipnc
  6407     053D  3E01               	addlw	1
  6408     053E  1903               	skipnz
  6409     053F  2D41               	goto	u4551
  6410     0540  07BA               	addwf	___flmul@grs+1,f
  6411     0541                     u4551:
  6412     0541  0834               	movf	??___flmul+2,w
  6413     0542  1103               	clrz
  6414     0543  1803               	skipnc
  6415     0544  3E01               	addlw	1
  6416     0545  1903               	skipnz
  6417     0546  2D48               	goto	u4552
  6418     0547  07BB               	addwf	___flmul@grs+2,f
  6419     0548                     u4552:
  6420     0548  0835               	movf	??___flmul+3,w
  6421     0549  1103               	clrz
  6422     054A  1803               	skipnc
  6423     054B  3E01               	addlw	1
  6424     054C  1903               	skipnz
  6425     054D  2D4F               	goto	u4553
  6426     054E  07BC               	addwf	___flmul@grs+3,f
  6427     054F                     u4553:
  6428     054F                     l3441:
  6429     054F  082A               	movf	___flmul@b,w
  6430     0550  00F2               	movwf	__Umul8_16@multiplicand
  6431     0551  082F               	movf	___flmul@a+1,w
  6432     0552  120A  158A  2008  120A  118A  	fcall	__Umul8_16
  6433     0557  0873               	movf	?__Umul8_16+1,w
  6434     0558  1283               	bcf	3,5	;RP0=0, select bank0
  6435     0559  1303               	bcf	3,6	;RP1=0, select bank0
  6436     055A  00C3               	movwf	___flmul@temp+1
  6437     055B  0872               	movf	?__Umul8_16,w
  6438     055C  00C2               	movwf	___flmul@temp
  6439     055D                     l3443:
  6440     055D  0842               	movf	___flmul@temp,w
  6441     055E  00B2               	movwf	??___flmul
  6442     055F  0843               	movf	___flmul@temp+1,w
  6443     0560  00B3               	movwf	??___flmul+1
  6444     0561  01B4               	clrf	??___flmul+2
  6445     0562  01B5               	clrf	??___flmul+3
  6446     0563  0832               	movf	??___flmul,w
  6447     0564  07B9               	addwf	___flmul@grs,f
  6448     0565  0833               	movf	??___flmul+1,w
  6449     0566  1103               	clrz
  6450     0567  1803               	skipnc
  6451     0568  3E01               	addlw	1
  6452     0569  1903               	skipnz
  6453     056A  2D6C               	goto	u4561
  6454     056B  07BA               	addwf	___flmul@grs+1,f
  6455     056C                     u4561:
  6456     056C  0834               	movf	??___flmul+2,w
  6457     056D  1103               	clrz
  6458     056E  1803               	skipnc
  6459     056F  3E01               	addlw	1
  6460     0570  1903               	skipnz
  6461     0571  2D73               	goto	u4562
  6462     0572  07BB               	addwf	___flmul@grs+2,f
  6463     0573                     u4562:
  6464     0573  0835               	movf	??___flmul+3,w
  6465     0574  1103               	clrz
  6466     0575  1803               	skipnc
  6467     0576  3E01               	addlw	1
  6468     0577  1903               	skipnz
  6469     0578  2D7A               	goto	u4563
  6470     0579  07BC               	addwf	___flmul@grs+3,f
  6471     057A                     u4563:
  6472     057A                     l3445:
  6473     057A  3008               	movlw	8
  6474     057B  00B2               	movwf	??___flmul
  6475     057C                     u4575:
  6476     057C  1003               	clrc
  6477     057D  0DB9               	rlf	___flmul@grs,f
  6478     057E  0DBA               	rlf	___flmul@grs+1,f
  6479     057F  0DBB               	rlf	___flmul@grs+2,f
  6480     0580  0DBC               	rlf	___flmul@grs+3,f
  6481     0581  0BB2               	decfsz	??___flmul,f
  6482     0582  2D7C               	goto	u4575
  6483     0583  082A               	movf	___flmul@b,w
  6484     0584  00F2               	movwf	__Umul8_16@multiplicand
  6485     0585  082E               	movf	___flmul@a,w
  6486     0586  120A  158A  2008  120A  118A  	fcall	__Umul8_16
  6487     058B  0873               	movf	?__Umul8_16+1,w
  6488     058C  1283               	bcf	3,5	;RP0=0, select bank0
  6489     058D  1303               	bcf	3,6	;RP1=0, select bank0
  6490     058E  00C3               	movwf	___flmul@temp+1
  6491     058F  0872               	movf	?__Umul8_16,w
  6492     0590  00C2               	movwf	___flmul@temp
  6493     0591                     l3447:
  6494     0591  0842               	movf	___flmul@temp,w
  6495     0592  00B2               	movwf	??___flmul
  6496     0593  0843               	movf	___flmul@temp+1,w
  6497     0594  00B3               	movwf	??___flmul+1
  6498     0595  01B4               	clrf	??___flmul+2
  6499     0596  01B5               	clrf	??___flmul+3
  6500     0597  0832               	movf	??___flmul,w
  6501     0598  07B9               	addwf	___flmul@grs,f
  6502     0599  0833               	movf	??___flmul+1,w
  6503     059A  1103               	clrz
  6504     059B  1803               	skipnc
  6505     059C  3E01               	addlw	1
  6506     059D  1903               	skipnz
  6507     059E  2DA0               	goto	u4581
  6508     059F  07BA               	addwf	___flmul@grs+1,f
  6509     05A0                     u4581:
  6510     05A0  0834               	movf	??___flmul+2,w
  6511     05A1  1103               	clrz
  6512     05A2  1803               	skipnc
  6513     05A3  3E01               	addlw	1
  6514     05A4  1903               	skipnz
  6515     05A5  2DA7               	goto	u4582
  6516     05A6  07BB               	addwf	___flmul@grs+2,f
  6517     05A7                     u4582:
  6518     05A7  0835               	movf	??___flmul+3,w
  6519     05A8  1103               	clrz
  6520     05A9  1803               	skipnc
  6521     05AA  3E01               	addlw	1
  6522     05AB  1903               	skipnz
  6523     05AC  2DAE               	goto	u4583
  6524     05AD  07BC               	addwf	___flmul@grs+3,f
  6525     05AE                     u4583:
  6526     05AE                     l3449:
  6527     05AE  082B               	movf	___flmul@b+1,w
  6528     05AF  00F2               	movwf	__Umul8_16@multiplicand
  6529     05B0  0830               	movf	___flmul@a+2,w
  6530     05B1  120A  158A  2008  120A  118A  	fcall	__Umul8_16
  6531     05B6  0873               	movf	?__Umul8_16+1,w
  6532     05B7  1283               	bcf	3,5	;RP0=0, select bank0
  6533     05B8  1303               	bcf	3,6	;RP1=0, select bank0
  6534     05B9  00C3               	movwf	___flmul@temp+1
  6535     05BA  0872               	movf	?__Umul8_16,w
  6536     05BB  00C2               	movwf	___flmul@temp
  6537     05BC  0842               	movf	___flmul@temp,w
  6538     05BD  00B2               	movwf	??___flmul
  6539     05BE  0843               	movf	___flmul@temp+1,w
  6540     05BF  00B3               	movwf	??___flmul+1
  6541     05C0  01B4               	clrf	??___flmul+2
  6542     05C1  01B5               	clrf	??___flmul+3
  6543     05C2  0832               	movf	??___flmul,w
  6544     05C3  07BE               	addwf	___flmul@prod,f
  6545     05C4  0833               	movf	??___flmul+1,w
  6546     05C5  1103               	clrz
  6547     05C6  1803               	skipnc
  6548     05C7  3E01               	addlw	1
  6549     05C8  1903               	skipnz
  6550     05C9  2DCB               	goto	u4591
  6551     05CA  07BF               	addwf	___flmul@prod+1,f
  6552     05CB                     u4591:
  6553     05CB  0834               	movf	??___flmul+2,w
  6554     05CC  1103               	clrz
  6555     05CD  1803               	skipnc
  6556     05CE  3E01               	addlw	1
  6557     05CF  1903               	skipnz
  6558     05D0  2DD2               	goto	u4592
  6559     05D1  07C0               	addwf	___flmul@prod+2,f
  6560     05D2                     u4592:
  6561     05D2  0835               	movf	??___flmul+3,w
  6562     05D3  1103               	clrz
  6563     05D4  1803               	skipnc
  6564     05D5  3E01               	addlw	1
  6565     05D6  1903               	skipnz
  6566     05D7  2DD9               	goto	u4593
  6567     05D8  07C1               	addwf	___flmul@prod+3,f
  6568     05D9                     u4593:
  6569     05D9                     l3451:
  6570     05D9  082C               	movf	___flmul@b+2,w
  6571     05DA  00F2               	movwf	__Umul8_16@multiplicand
  6572     05DB  082F               	movf	___flmul@a+1,w
  6573     05DC  120A  158A  2008  120A  118A  	fcall	__Umul8_16
  6574     05E1  0873               	movf	?__Umul8_16+1,w
  6575     05E2  1283               	bcf	3,5	;RP0=0, select bank0
  6576     05E3  1303               	bcf	3,6	;RP1=0, select bank0
  6577     05E4  00C3               	movwf	___flmul@temp+1
  6578     05E5  0872               	movf	?__Umul8_16,w
  6579     05E6  00C2               	movwf	___flmul@temp
  6580     05E7                     l3453:
  6581     05E7  0842               	movf	___flmul@temp,w
  6582     05E8  00B2               	movwf	??___flmul
  6583     05E9  0843               	movf	___flmul@temp+1,w
  6584     05EA  00B3               	movwf	??___flmul+1
  6585     05EB  01B4               	clrf	??___flmul+2
  6586     05EC  01B5               	clrf	??___flmul+3
  6587     05ED  0832               	movf	??___flmul,w
  6588     05EE  07BE               	addwf	___flmul@prod,f
  6589     05EF  0833               	movf	??___flmul+1,w
  6590     05F0  1103               	clrz
  6591     05F1  1803               	skipnc
  6592     05F2  3E01               	addlw	1
  6593     05F3  1903               	skipnz
  6594     05F4  2DF6               	goto	u4601
  6595     05F5  07BF               	addwf	___flmul@prod+1,f
  6596     05F6                     u4601:
  6597     05F6  0834               	movf	??___flmul+2,w
  6598     05F7  1103               	clrz
  6599     05F8  1803               	skipnc
  6600     05F9  3E01               	addlw	1
  6601     05FA  1903               	skipnz
  6602     05FB  2DFD               	goto	u4602
  6603     05FC  07C0               	addwf	___flmul@prod+2,f
  6604     05FD                     u4602:
  6605     05FD  0835               	movf	??___flmul+3,w
  6606     05FE  1103               	clrz
  6607     05FF  1803               	skipnc
  6608     0600  3E01               	addlw	1
  6609     0601  1903               	skipnz
  6610     0602  2E04               	goto	u4603
  6611     0603  07C1               	addwf	___flmul@prod+3,f
  6612     0604                     u4603:
  6613     0604  082C               	movf	___flmul@b+2,w
  6614     0605  00F2               	movwf	__Umul8_16@multiplicand
  6615     0606  0830               	movf	___flmul@a+2,w
  6616     0607  120A  158A  2008  120A  118A  	fcall	__Umul8_16
  6617     060C  0873               	movf	?__Umul8_16+1,w
  6618     060D  1283               	bcf	3,5	;RP0=0, select bank0
  6619     060E  1303               	bcf	3,6	;RP1=0, select bank0
  6620     060F  00C3               	movwf	___flmul@temp+1
  6621     0610  0872               	movf	?__Umul8_16,w
  6622     0611  00C2               	movwf	___flmul@temp
  6623     0612                     l3455:
  6624     0612  0842               	movf	___flmul@temp,w
  6625     0613  00B2               	movwf	??___flmul
  6626     0614  0843               	movf	___flmul@temp+1,w
  6627     0615  00B3               	movwf	??___flmul+1
  6628     0616  01B4               	clrf	??___flmul+2
  6629     0617  01B5               	clrf	??___flmul+3
  6630     0618  3008               	movlw	8
  6631     0619                     u4615:
  6632     0619  1003               	clrc
  6633     061A  0DB2               	rlf	??___flmul,f
  6634     061B  0DB3               	rlf	??___flmul+1,f
  6635     061C  0DB4               	rlf	??___flmul+2,f
  6636     061D  0DB5               	rlf	??___flmul+3,f
  6637     061E                     u4610:
  6638     061E  3EFF               	addlw	-1
  6639     061F  1D03               	skipz
  6640     0620  2E19               	goto	u4615
  6641     0621  0832               	movf	??___flmul,w
  6642     0622  07BE               	addwf	___flmul@prod,f
  6643     0623  0833               	movf	??___flmul+1,w
  6644     0624  1103               	clrz
  6645     0625  1803               	skipnc
  6646     0626  3E01               	addlw	1
  6647     0627  1903               	skipnz
  6648     0628  2E2A               	goto	u4621
  6649     0629  07BF               	addwf	___flmul@prod+1,f
  6650     062A                     u4621:
  6651     062A  0834               	movf	??___flmul+2,w
  6652     062B  1103               	clrz
  6653     062C  1803               	skipnc
  6654     062D  3E01               	addlw	1
  6655     062E  1903               	skipnz
  6656     062F  2E31               	goto	u4622
  6657     0630  07C0               	addwf	___flmul@prod+2,f
  6658     0631                     u4622:
  6659     0631  0835               	movf	??___flmul+3,w
  6660     0632  1103               	clrz
  6661     0633  1803               	skipnc
  6662     0634  3E01               	addlw	1
  6663     0635  1903               	skipnz
  6664     0636  2E38               	goto	u4623
  6665     0637  07C1               	addwf	___flmul@prod+3,f
  6666     0638                     u4623:
  6667     0638                     l3457:
  6668     0638  0839               	movf	___flmul@grs,w
  6669     0639  00B2               	movwf	??___flmul
  6670     063A  083A               	movf	___flmul@grs+1,w
  6671     063B  00B3               	movwf	??___flmul+1
  6672     063C  083B               	movf	___flmul@grs+2,w
  6673     063D  00B4               	movwf	??___flmul+2
  6674     063E  083C               	movf	___flmul@grs+3,w
  6675     063F  00B5               	movwf	??___flmul+3
  6676     0640  3018               	movlw	24
  6677     0641                     u4635:
  6678     0641  1003               	clrc
  6679     0642  0CB5               	rrf	??___flmul+3,f
  6680     0643  0CB4               	rrf	??___flmul+2,f
  6681     0644  0CB3               	rrf	??___flmul+1,f
  6682     0645  0CB2               	rrf	??___flmul,f
  6683     0646                     u4630:
  6684     0646  3EFF               	addlw	-1
  6685     0647  1D03               	skipz
  6686     0648  2E41               	goto	u4635
  6687     0649  0832               	movf	??___flmul,w
  6688     064A  07BE               	addwf	___flmul@prod,f
  6689     064B  0833               	movf	??___flmul+1,w
  6690     064C  1103               	clrz
  6691     064D  1803               	skipnc
  6692     064E  3E01               	addlw	1
  6693     064F  1903               	skipnz
  6694     0650  2E52               	goto	u4641
  6695     0651  07BF               	addwf	___flmul@prod+1,f
  6696     0652                     u4641:
  6697     0652  0834               	movf	??___flmul+2,w
  6698     0653  1103               	clrz
  6699     0654  1803               	skipnc
  6700     0655  3E01               	addlw	1
  6701     0656  1903               	skipnz
  6702     0657  2E59               	goto	u4642
  6703     0658  07C0               	addwf	___flmul@prod+2,f
  6704     0659                     u4642:
  6705     0659  0835               	movf	??___flmul+3,w
  6706     065A  1103               	clrz
  6707     065B  1803               	skipnc
  6708     065C  3E01               	addlw	1
  6709     065D  1903               	skipnz
  6710     065E  2E60               	goto	u4643
  6711     065F  07C1               	addwf	___flmul@prod+3,f
  6712     0660                     u4643:
  6713     0660                     l3459:
  6714     0660  3008               	movlw	8
  6715     0661  00B2               	movwf	??___flmul
  6716     0662                     u4655:
  6717     0662  1003               	clrc
  6718     0663  0DB9               	rlf	___flmul@grs,f
  6719     0664  0DBA               	rlf	___flmul@grs+1,f
  6720     0665  0DBB               	rlf	___flmul@grs+2,f
  6721     0666  0DBC               	rlf	___flmul@grs+3,f
  6722     0667  0BB2               	decfsz	??___flmul,f
  6723     0668  2E62               	goto	u4655
  6724     0669                     l3461:
  6725     0669  083D               	movf	___flmul@bexp,w
  6726     066A  0738               	addwf	___flmul@aexp,w
  6727     066B  00B2               	movwf	??___flmul
  6728     066C  01B3               	clrf	??___flmul+1
  6729     066D  0DB3               	rlf	??___flmul+1,f
  6730     066E  0832               	movf	??___flmul,w
  6731     066F  3E82               	addlw	130
  6732     0670  00C2               	movwf	___flmul@temp
  6733     0671  0833               	movf	??___flmul+1,w
  6734     0672  1803               	skipnc
  6735     0673  3E01               	addlw	1
  6736     0674  3EFF               	addlw	255
  6737     0675  00C3               	movwf	___flmul@temp+1
  6738     0676  2E94               	goto	l3473
  6739     0677                     l3463:
  6740     0677  3001               	movlw	1
  6741     0678  00B2               	movwf	??___flmul
  6742     0679                     u4665:
  6743     0679  1003               	clrc
  6744     067A  0DBE               	rlf	___flmul@prod,f
  6745     067B  0DBF               	rlf	___flmul@prod+1,f
  6746     067C  0DC0               	rlf	___flmul@prod+2,f
  6747     067D  0DC1               	rlf	___flmul@prod+3,f
  6748     067E  0BB2               	decfsz	??___flmul,f
  6749     067F  2E79               	goto	u4665
  6750     0680                     l3465:
  6751     0680  1FBC               	btfss	___flmul@grs+3,7
  6752     0681  2E83               	goto	u4671
  6753     0682  2E84               	goto	u4670
  6754     0683                     u4671:
  6755     0683  2E85               	goto	l3469
  6756     0684                     u4670:
  6757     0684                     l3467:
  6758     0684  143E               	bsf	___flmul@prod,0
  6759     0685                     l3469:
  6760     0685  3001               	movlw	1
  6761     0686  00B2               	movwf	??___flmul
  6762     0687                     u4685:
  6763     0687  1003               	clrc
  6764     0688  0DB9               	rlf	___flmul@grs,f
  6765     0689  0DBA               	rlf	___flmul@grs+1,f
  6766     068A  0DBB               	rlf	___flmul@grs+2,f
  6767     068B  0DBC               	rlf	___flmul@grs+3,f
  6768     068C  0BB2               	decfsz	??___flmul,f
  6769     068D  2E87               	goto	u4685
  6770     068E                     l3471:
  6771     068E  30FF               	movlw	255
  6772     068F  07C2               	addwf	___flmul@temp,f
  6773     0690  1803               	skipnc
  6774     0691  0AC3               	incf	___flmul@temp+1,f
  6775     0692  30FF               	movlw	255
  6776     0693  07C3               	addwf	___flmul@temp+1,f
  6777     0694                     l3473:
  6778     0694  1FC0               	btfss	___flmul@prod+2,7
  6779     0695  2E97               	goto	u4691
  6780     0696  2E98               	goto	u4690
  6781     0697                     u4691:
  6782     0697  2E77               	goto	l3463
  6783     0698                     u4690:
  6784     0698                     l3475:
  6785     0698  01B8               	clrf	___flmul@aexp
  6786     0699                     l3477:
  6787     0699  1FBC               	btfss	___flmul@grs+3,7
  6788     069A  2E9C               	goto	u4701
  6789     069B  2E9D               	goto	u4700
  6790     069C                     u4701:
  6791     069C  2EB9               	goto	l3485
  6792     069D                     u4700:
  6793     069D                     l3479:
  6794     069D  30FF               	movlw	255
  6795     069E  0539               	andwf	___flmul@grs,w
  6796     069F  00B2               	movwf	??___flmul
  6797     06A0  30FF               	movlw	255
  6798     06A1  053A               	andwf	___flmul@grs+1,w
  6799     06A2  00B3               	movwf	??___flmul+1
  6800     06A3  30FF               	movlw	255
  6801     06A4  053B               	andwf	___flmul@grs+2,w
  6802     06A5  00B4               	movwf	??___flmul+2
  6803     06A6  307F               	movlw	127
  6804     06A7  053C               	andwf	___flmul@grs+3,w
  6805     06A8  00B5               	movwf	??___flmul+3
  6806     06A9  0835               	movf	??___flmul+3,w
  6807     06AA  0434               	iorwf	??___flmul+2,w
  6808     06AB  0433               	iorwf	??___flmul+1,w
  6809     06AC  0432               	iorwf	??___flmul,w
  6810     06AD  1903               	skipnz
  6811     06AE  2EB0               	goto	u4711
  6812     06AF  2EB1               	goto	u4710
  6813     06B0                     u4711:
  6814     06B0  2EB4               	goto	l842
  6815     06B1                     u4710:
  6816     06B1                     l3481:
  6817     06B1  3001               	movlw	1
  6818     06B2  00B8               	movwf	___flmul@aexp
  6819     06B3  2EB9               	goto	l3485
  6820     06B4                     l842:
  6821     06B4  1C3E               	btfss	___flmul@prod,0
  6822     06B5  2EB7               	goto	u4721
  6823     06B6  2EB8               	goto	u4720
  6824     06B7                     u4721:
  6825     06B7  2EB9               	goto	l3485
  6826     06B8                     u4720:
  6827     06B8  2EB1               	goto	l3481
  6828     06B9                     l3485:
  6829     06B9  0838               	movf	___flmul@aexp,w
  6830     06BA  1903               	btfsc	3,2
  6831     06BB  2EBD               	goto	u4731
  6832     06BC  2EBE               	goto	u4730
  6833     06BD                     u4731:
  6834     06BD  2EEF               	goto	l3495
  6835     06BE                     u4730:
  6836     06BE                     l3487:
  6837     06BE  3001               	movlw	1
  6838     06BF  07BE               	addwf	___flmul@prod,f
  6839     06C0  3000               	movlw	0
  6840     06C1  1803               	skipnc
  6841     06C2  3001               	movlw	1
  6842     06C3  07BF               	addwf	___flmul@prod+1,f
  6843     06C4  3000               	movlw	0
  6844     06C5  1803               	skipnc
  6845     06C6  3001               	movlw	1
  6846     06C7  07C0               	addwf	___flmul@prod+2,f
  6847     06C8  3000               	movlw	0
  6848     06C9  1803               	skipnc
  6849     06CA  3001               	movlw	1
  6850     06CB  07C1               	addwf	___flmul@prod+3,f
  6851     06CC                     l3489:
  6852     06CC  1C41               	btfss	___flmul@prod+3,0
  6853     06CD  2ECF               	goto	u4741
  6854     06CE  2ED0               	goto	u4740
  6855     06CF                     u4741:
  6856     06CF  2EEF               	goto	l3495
  6857     06D0                     u4740:
  6858     06D0                     l3491:
  6859     06D0  083E               	movf	___flmul@prod,w
  6860     06D1  00B2               	movwf	??___flmul
  6861     06D2  083F               	movf	___flmul@prod+1,w
  6862     06D3  00B3               	movwf	??___flmul+1
  6863     06D4  0840               	movf	___flmul@prod+2,w
  6864     06D5  00B4               	movwf	??___flmul+2
  6865     06D6  0841               	movf	___flmul@prod+3,w
  6866     06D7  00B5               	movwf	??___flmul+3
  6867     06D8  3001               	movlw	1
  6868     06D9  00B6               	movwf	??___flmul+4
  6869     06DA                     u4755:
  6870     06DA  0D35               	rlf	??___flmul+3,w
  6871     06DB  0CB5               	rrf	??___flmul+3,f
  6872     06DC  0CB4               	rrf	??___flmul+2,f
  6873     06DD  0CB3               	rrf	??___flmul+1,f
  6874     06DE  0CB2               	rrf	??___flmul,f
  6875     06DF                     u4750:
  6876     06DF  0BB6               	decfsz	??___flmul+4,f
  6877     06E0  2EDA               	goto	u4755
  6878     06E1  0835               	movf	??___flmul+3,w
  6879     06E2  00C1               	movwf	___flmul@prod+3
  6880     06E3  0834               	movf	??___flmul+2,w
  6881     06E4  00C0               	movwf	___flmul@prod+2
  6882     06E5  0833               	movf	??___flmul+1,w
  6883     06E6  00BF               	movwf	___flmul@prod+1
  6884     06E7  0832               	movf	??___flmul,w
  6885     06E8  00BE               	movwf	___flmul@prod
  6886     06E9                     l3493:
  6887     06E9  3001               	movlw	1
  6888     06EA  07C2               	addwf	___flmul@temp,f
  6889     06EB  1803               	skipnc
  6890     06EC  0AC3               	incf	___flmul@temp+1,f
  6891     06ED  3000               	movlw	0
  6892     06EE  07C3               	addwf	___flmul@temp+1,f
  6893     06EF                     l3495:
  6894     06EF  0843               	movf	___flmul@temp+1,w
  6895     06F0  3A80               	xorlw	128
  6896     06F1  00FF               	movwf	btemp+1
  6897     06F2  3080               	movlw	128
  6898     06F3  027F               	subwf	btemp+1,w
  6899     06F4  1D03               	skipz
  6900     06F5  2EF8               	goto	u4765
  6901     06F6  30FF               	movlw	255
  6902     06F7  0242               	subwf	___flmul@temp,w
  6903     06F8                     u4765:
  6904     06F8  1C03               	skipc
  6905     06F9  2EFB               	goto	u4761
  6906     06FA  2EFC               	goto	u4760
  6907     06FB                     u4761:
  6908     06FB  2F07               	goto	l3499
  6909     06FC                     u4760:
  6910     06FC                     l3497:
  6911     06FC  307F               	movlw	127
  6912     06FD  1283               	bcf	3,5	;RP0=0, select bank0
  6913     06FE  1303               	bcf	3,6	;RP1=0, select bank0
  6914     06FF  00C1               	movwf	___flmul@prod+3
  6915     0700  3080               	movlw	128
  6916     0701  00C0               	movwf	___flmul@prod+2
  6917     0702  3000               	movlw	0
  6918     0703  00BF               	movwf	___flmul@prod+1
  6919     0704  3000               	movlw	0
  6920     0705  00BE               	movwf	___flmul@prod
  6921     0706  2F38               	goto	l848
  6922     0707                     l3499:
  6923     0707  1283               	bcf	3,5	;RP0=0, select bank0
  6924     0708  1303               	bcf	3,6	;RP1=0, select bank0
  6925     0709  0843               	movf	___flmul@temp+1,w
  6926     070A  3A80               	xorlw	128
  6927     070B  00FF               	movwf	btemp+1
  6928     070C  3080               	movlw	128
  6929     070D  027F               	subwf	btemp+1,w
  6930     070E  1D03               	skipz
  6931     070F  2F12               	goto	u4775
  6932     0710  3001               	movlw	1
  6933     0711  0242               	subwf	___flmul@temp,w
  6934     0712                     u4775:
  6935     0712  1803               	skipnc
  6936     0713  2F15               	goto	u4771
  6937     0714  2F16               	goto	u4770
  6938     0715                     u4771:
  6939     0715  2F22               	goto	l3505
  6940     0716                     u4770:
  6941     0716                     l3501:
  6942     0716  3000               	movlw	0
  6943     0717  1283               	bcf	3,5	;RP0=0, select bank0
  6944     0718  1303               	bcf	3,6	;RP1=0, select bank0
  6945     0719  00C1               	movwf	___flmul@prod+3
  6946     071A  3000               	movlw	0
  6947     071B  00C0               	movwf	___flmul@prod+2
  6948     071C  3000               	movlw	0
  6949     071D  00BF               	movwf	___flmul@prod+1
  6950     071E  3000               	movlw	0
  6951     071F  00BE               	movwf	___flmul@prod
  6952     0720                     l3503:
  6953     0720  01B7               	clrf	___flmul@sign
  6954     0721  2F38               	goto	l848
  6955     0722                     l3505:
  6956     0722  1283               	bcf	3,5	;RP0=0, select bank0
  6957     0723  1303               	bcf	3,6	;RP1=0, select bank0
  6958     0724  0842               	movf	___flmul@temp,w
  6959     0725  00BD               	movwf	___flmul@bexp
  6960     0726  30FF               	movlw	255
  6961     0727  05BE               	andwf	___flmul@prod,f
  6962     0728  30FF               	movlw	255
  6963     0729  05BF               	andwf	___flmul@prod+1,f
  6964     072A  307F               	movlw	127
  6965     072B  05C0               	andwf	___flmul@prod+2,f
  6966     072C  3000               	movlw	0
  6967     072D  05C1               	andwf	___flmul@prod+3,f
  6968     072E                     l3507:
  6969     072E  1C3D               	btfss	___flmul@bexp,0
  6970     072F  2F31               	goto	u4781
  6971     0730  2F32               	goto	u4780
  6972     0731                     u4781:
  6973     0731  2F33               	goto	l3511
  6974     0732                     u4780:
  6975     0732                     l3509:
  6976     0732  17C0               	bsf	___flmul@prod+2,7
  6977     0733                     l3511:
  6978     0733  083D               	movf	___flmul@bexp,w
  6979     0734  00B2               	movwf	??___flmul
  6980     0735  1003               	clrc
  6981     0736  0C32               	rrf	??___flmul,w
  6982     0737  00C1               	movwf	___flmul@prod+3
  6983     0738                     l848:
  6984     0738  0837               	movf	___flmul@sign,w
  6985     0739  04C1               	iorwf	___flmul@prod+3,f
  6986     073A                     l3513:
  6987     073A  0841               	movf	___flmul@prod+3,w
  6988     073B  00AD               	movwf	?___flmul+3
  6989     073C  0840               	movf	___flmul@prod+2,w
  6990     073D  00AC               	movwf	?___flmul+2
  6991     073E  083F               	movf	___flmul@prod+1,w
  6992     073F  00AB               	movwf	?___flmul+1
  6993     0740  083E               	movf	___flmul@prod,w
  6994     0741  00AA               	movwf	?___flmul
  6995     0742                     l836:
  6996     0742  0008               	return
  6997     0743                     __end_of___flmul:
  6998                           
  6999                           	psect	text13
  7000     0808                     __ptext13:	
  7001 ;; *************** function __Umul8_16 *****************
  7002 ;; Defined at:
  7003 ;;		line 4 in file "C:\Program Files\Microchip\xc8\v3.00\pic\sources\c99\common\Umul8_16.c"
  7004 ;; Parameters:    Size  Location     Type
  7005 ;;  multiplier      1    wreg     unsigned char 
  7006 ;;  multiplicand    1    2[COMMON] unsigned char 
  7007 ;; Auto vars:     Size  Location     Type
  7008 ;;  multiplier      1    4[BANK0 ] unsigned char 
  7009 ;;  word_mpld       2    2[BANK0 ] unsigned short 
  7010 ;;  product         2    0[BANK0 ] unsigned short 
  7011 ;; Return value:  Size  Location     Type
  7012 ;;                  2    2[COMMON] unsigned int 
  7013 ;; Registers used:
  7014 ;;		wreg, status,2, status,0
  7015 ;; Tracked objects:
  7016 ;;		On entry : 0/0
  7017 ;;		On exit  : 0/0
  7018 ;;		Unchanged: 0/0
  7019 ;; Data sizes:     COMMON   BANK0   BANK1   BANK3   BANK2
  7020 ;;      Params:         2       0       0       0       0
  7021 ;;      Locals:         0       5       0       0       0
  7022 ;;      Temps:          2       0       0       0       0
  7023 ;;      Totals:         4       5       0       0       0
  7024 ;;Total ram usage:        9 bytes
  7025 ;; Hardware stack levels used: 1
  7026 ;; Hardware stack levels required when called: 1
  7027 ;; This function calls:
  7028 ;;		Nothing
  7029 ;; This function is called by:
  7030 ;;		___flmul
  7031 ;; This function uses a non-reentrant model
  7032 ;;
  7033                           
  7034     0808                     __Umul8_16:	
  7035                           ;psect for function __Umul8_16
  7036                           
  7037                           
  7038                           ;incstack = 0
  7039                           ; Regs used in __Umul8_16: [wreg+status,2+status,0]
  7040                           ;__Umul8_16@multiplier stored from wreg
  7041     0808  1283               	bcf	3,5	;RP0=0, select bank0
  7042     0809  1303               	bcf	3,6	;RP1=0, select bank0
  7043     080A  00A4               	movwf	__Umul8_16@multiplier
  7044     080B                     l3171:
  7045     080B  01A0               	clrf	__Umul8_16@product
  7046     080C  01A1               	clrf	__Umul8_16@product+1
  7047     080D                     l3173:
  7048     080D  0872               	movf	__Umul8_16@multiplicand,w
  7049     080E  00F4               	movwf	??__Umul8_16
  7050     080F  01F5               	clrf	??__Umul8_16+1
  7051     0810  0874               	movf	??__Umul8_16,w
  7052     0811  00A2               	movwf	__Umul8_16@word_mpld
  7053     0812  0875               	movf	??__Umul8_16+1,w
  7054     0813  00A3               	movwf	__Umul8_16@word_mpld+1
  7055     0814                     l3175:
  7056     0814  1C24               	btfss	__Umul8_16@multiplier,0
  7057     0815  2817               	goto	u3971
  7058     0816  2818               	goto	u3970
  7059     0817                     u3971:
  7060     0817  281E               	goto	l855
  7061     0818                     u3970:
  7062     0818                     l3177:
  7063     0818  0822               	movf	__Umul8_16@word_mpld,w
  7064     0819  07A0               	addwf	__Umul8_16@product,f
  7065     081A  1803               	skipnc
  7066     081B  0AA1               	incf	__Umul8_16@product+1,f
  7067     081C  0823               	movf	__Umul8_16@word_mpld+1,w
  7068     081D  07A1               	addwf	__Umul8_16@product+1,f
  7069     081E                     l855:
  7070     081E  3001               	movlw	1
  7071     081F                     u3985:
  7072     081F  1003               	clrc
  7073     0820  0DA2               	rlf	__Umul8_16@word_mpld,f
  7074     0821  0DA3               	rlf	__Umul8_16@word_mpld+1,f
  7075     0822  3EFF               	addlw	-1
  7076     0823  1D03               	skipz
  7077     0824  281F               	goto	u3985
  7078     0825  1003               	clrc
  7079     0826  0CA4               	rrf	__Umul8_16@multiplier,f
  7080     0827                     l3179:
  7081     0827  0824               	movf	__Umul8_16@multiplier,w
  7082     0828  1D03               	btfss	3,2
  7083     0829  282B               	goto	u3991
  7084     082A  282C               	goto	u3990
  7085     082B                     u3991:
  7086     082B  2814               	goto	l3175
  7087     082C                     u3990:
  7088     082C                     l3181:
  7089     082C  0821               	movf	__Umul8_16@product+1,w
  7090     082D  00F3               	movwf	?__Umul8_16+1
  7091     082E  0820               	movf	__Umul8_16@product,w
  7092     082F  00F2               	movwf	?__Umul8_16
  7093     0830                     l857:
  7094     0830  0008               	return
  7095     0831                     __end_of__Umul8_16:
  7096                           
  7097                           	psect	text14
  7098     08A7                     __ptext14:	
  7099 ;; *************** function ___flge *****************
  7100 ;; Defined at:
  7101 ;;		line 4 in file "C:\Program Files\Microchip\xc8\v3.00\pic\sources\c99\common\flge.c"
  7102 ;; Parameters:    Size  Location     Type
  7103 ;;  ff1             4   44[BANK0 ] unsigned int 
  7104 ;;  ff2             4   48[BANK0 ] unsigned int 
  7105 ;; Auto vars:     Size  Location     Type
  7106 ;;		None
  7107 ;; Return value:  Size  Location     Type
  7108 ;;		None               void
  7109 ;; Registers used:
  7110 ;;		wreg, status,2, status,0
  7111 ;; Tracked objects:
  7112 ;;		On entry : 0/0
  7113 ;;		On exit  : 0/0
  7114 ;;		Unchanged: 0/0
  7115 ;; Data sizes:     COMMON   BANK0   BANK1   BANK3   BANK2
  7116 ;;      Params:         0       8       0       0       0
  7117 ;;      Locals:         0       0       0       0       0
  7118 ;;      Temps:          0       4       0       0       0
  7119 ;;      Totals:         0      12       0       0       0
  7120 ;;Total ram usage:       12 bytes
  7121 ;; Hardware stack levels used: 1
  7122 ;; Hardware stack levels required when called: 1
  7123 ;; This function calls:
  7124 ;;		Nothing
  7125 ;; This function is called by:
  7126 ;;		_run_program
  7127 ;; This function uses a non-reentrant model
  7128 ;;
  7129                           
  7130     08A7                     ___flge:	
  7131                           ;psect for function ___flge
  7132                           
  7133     08A7                     l3313:	
  7134                           ;incstack = 0
  7135                           ; Regs used in ___flge: [wreg+status,2+status,0]
  7136                           
  7137     08A7  3000               	movlw	0
  7138     08A8  1283               	bcf	3,5	;RP0=0, select bank0
  7139     08A9  1303               	bcf	3,6	;RP1=0, select bank0
  7140     08AA  054C               	andwf	___flge@ff1,w
  7141     08AB  00D4               	movwf	??___flge
  7142     08AC  3000               	movlw	0
  7143     08AD  054D               	andwf	___flge@ff1+1,w
  7144     08AE  00D5               	movwf	??___flge+1
  7145     08AF  3080               	movlw	128
  7146     08B0  054E               	andwf	___flge@ff1+2,w
  7147     08B1  00D6               	movwf	??___flge+2
  7148     08B2  307F               	movlw	127
  7149     08B3  054F               	andwf	___flge@ff1+3,w
  7150     08B4  00D7               	movwf	??___flge+3
  7151     08B5  0857               	movf	??___flge+3,w
  7152     08B6  0456               	iorwf	??___flge+2,w
  7153     08B7  0455               	iorwf	??___flge+1,w
  7154     08B8  0454               	iorwf	??___flge,w
  7155     08B9  1D03               	skipz
  7156     08BA  28BC               	goto	u4251
  7157     08BB  28BD               	goto	u4250
  7158     08BC                     u4251:
  7159     08BC  28C5               	goto	l617
  7160     08BD                     u4250:
  7161     08BD                     l3315:
  7162     08BD  3000               	movlw	0
  7163     08BE  00CF               	movwf	___flge@ff1+3
  7164     08BF  3000               	movlw	0
  7165     08C0  00CE               	movwf	___flge@ff1+2
  7166     08C1  3000               	movlw	0
  7167     08C2  00CD               	movwf	___flge@ff1+1
  7168     08C3  3000               	movlw	0
  7169     08C4  00CC               	movwf	___flge@ff1
  7170     08C5                     l617:
  7171     08C5  3000               	movlw	0
  7172     08C6  0550               	andwf	___flge@ff2,w
  7173     08C7  00D4               	movwf	??___flge
  7174     08C8  3000               	movlw	0
  7175     08C9  0551               	andwf	___flge@ff2+1,w
  7176     08CA  00D5               	movwf	??___flge+1
  7177     08CB  3080               	movlw	128
  7178     08CC  0552               	andwf	___flge@ff2+2,w
  7179     08CD  00D6               	movwf	??___flge+2
  7180     08CE  307F               	movlw	127
  7181     08CF  0553               	andwf	___flge@ff2+3,w
  7182     08D0  00D7               	movwf	??___flge+3
  7183     08D1  0857               	movf	??___flge+3,w
  7184     08D2  0456               	iorwf	??___flge+2,w
  7185     08D3  0455               	iorwf	??___flge+1,w
  7186     08D4  0454               	iorwf	??___flge,w
  7187     08D5  1D03               	skipz
  7188     08D6  28D8               	goto	u4261
  7189     08D7  28D9               	goto	u4260
  7190     08D8                     u4261:
  7191     08D8  28E1               	goto	l3319
  7192     08D9                     u4260:
  7193     08D9                     l3317:
  7194     08D9  3000               	movlw	0
  7195     08DA  00D3               	movwf	___flge@ff2+3
  7196     08DB  3000               	movlw	0
  7197     08DC  00D2               	movwf	___flge@ff2+2
  7198     08DD  3000               	movlw	0
  7199     08DE  00D1               	movwf	___flge@ff2+1
  7200     08DF  3000               	movlw	0
  7201     08E0  00D0               	movwf	___flge@ff2
  7202     08E1                     l3319:
  7203     08E1  1FCF               	btfss	___flge@ff1+3,7
  7204     08E2  28E4               	goto	u4271
  7205     08E3  28E5               	goto	u4270
  7206     08E4                     u4271:
  7207     08E4  2909               	goto	l3323
  7208     08E5                     u4270:
  7209     08E5                     l3321:
  7210     08E5  3000               	movlw	0
  7211     08E6  00D4               	movwf	??___flge
  7212     08E7  3000               	movlw	0
  7213     08E8  00D5               	movwf	??___flge+1
  7214     08E9  3000               	movlw	0
  7215     08EA  00D6               	movwf	??___flge+2
  7216     08EB  3080               	movlw	128
  7217     08EC  00D7               	movwf	??___flge+3
  7218     08ED  084C               	movf	___flge@ff1,w
  7219     08EE  02D4               	subwf	??___flge,f
  7220     08EF  084D               	movf	___flge@ff1+1,w
  7221     08F0  1C03               	skipc
  7222     08F1  0F4D               	incfsz	___flge@ff1+1,w
  7223     08F2  28F4               	goto	u4281
  7224     08F3  28F5               	goto	u4282
  7225     08F4                     u4281:
  7226     08F4  02D5               	subwf	??___flge+1,f
  7227     08F5                     u4282:
  7228     08F5  084E               	movf	___flge@ff1+2,w
  7229     08F6  1C03               	skipc
  7230     08F7  0F4E               	incfsz	___flge@ff1+2,w
  7231     08F8  28FA               	goto	u4283
  7232     08F9  28FB               	goto	u4284
  7233     08FA                     u4283:
  7234     08FA  02D6               	subwf	??___flge+2,f
  7235     08FB                     u4284:
  7236     08FB  084F               	movf	___flge@ff1+3,w
  7237     08FC  1C03               	skipc
  7238     08FD  0F4F               	incfsz	___flge@ff1+3,w
  7239     08FE  2900               	goto	u4285
  7240     08FF  2901               	goto	u4286
  7241     0900                     u4285:
  7242     0900  02D7               	subwf	??___flge+3,f
  7243     0901                     u4286:
  7244     0901  0857               	movf	??___flge+3,w
  7245     0902  00CF               	movwf	___flge@ff1+3
  7246     0903  0856               	movf	??___flge+2,w
  7247     0904  00CE               	movwf	___flge@ff1+2
  7248     0905  0855               	movf	??___flge+1,w
  7249     0906  00CD               	movwf	___flge@ff1+1
  7250     0907  0854               	movf	??___flge,w
  7251     0908  00CC               	movwf	___flge@ff1
  7252     0909                     l3323:
  7253     0909  1FD3               	btfss	___flge@ff2+3,7
  7254     090A  290C               	goto	u4291
  7255     090B  290D               	goto	u4290
  7256     090C                     u4291:
  7257     090C  2931               	goto	l620
  7258     090D                     u4290:
  7259     090D                     l3325:
  7260     090D  3000               	movlw	0
  7261     090E  00D4               	movwf	??___flge
  7262     090F  3000               	movlw	0
  7263     0910  00D5               	movwf	??___flge+1
  7264     0911  3000               	movlw	0
  7265     0912  00D6               	movwf	??___flge+2
  7266     0913  3080               	movlw	128
  7267     0914  00D7               	movwf	??___flge+3
  7268     0915  0850               	movf	___flge@ff2,w
  7269     0916  02D4               	subwf	??___flge,f
  7270     0917  0851               	movf	___flge@ff2+1,w
  7271     0918  1C03               	skipc
  7272     0919  0F51               	incfsz	___flge@ff2+1,w
  7273     091A  291C               	goto	u4301
  7274     091B  291D               	goto	u4302
  7275     091C                     u4301:
  7276     091C  02D5               	subwf	??___flge+1,f
  7277     091D                     u4302:
  7278     091D  0852               	movf	___flge@ff2+2,w
  7279     091E  1C03               	skipc
  7280     091F  0F52               	incfsz	___flge@ff2+2,w
  7281     0920  2922               	goto	u4303
  7282     0921  2923               	goto	u4304
  7283     0922                     u4303:
  7284     0922  02D6               	subwf	??___flge+2,f
  7285     0923                     u4304:
  7286     0923  0853               	movf	___flge@ff2+3,w
  7287     0924  1C03               	skipc
  7288     0925  0F53               	incfsz	___flge@ff2+3,w
  7289     0926  2928               	goto	u4305
  7290     0927  2929               	goto	u4306
  7291     0928                     u4305:
  7292     0928  02D7               	subwf	??___flge+3,f
  7293     0929                     u4306:
  7294     0929  0857               	movf	??___flge+3,w
  7295     092A  00D3               	movwf	___flge@ff2+3
  7296     092B  0856               	movf	??___flge+2,w
  7297     092C  00D2               	movwf	___flge@ff2+2
  7298     092D  0855               	movf	??___flge+1,w
  7299     092E  00D1               	movwf	___flge@ff2+1
  7300     092F  0854               	movf	??___flge,w
  7301     0930  00D0               	movwf	___flge@ff2
  7302     0931                     l620:
  7303     0931  3080               	movlw	128
  7304     0932  06CF               	xorwf	___flge@ff1+3,f
  7305     0933  3080               	movlw	128
  7306     0934  06D3               	xorwf	___flge@ff2+3,f
  7307     0935  0853               	movf	___flge@ff2+3,w
  7308     0936  024F               	subwf	___flge@ff1+3,w
  7309     0937  1D03               	skipz
  7310     0938  2943               	goto	u4315
  7311     0939  0852               	movf	___flge@ff2+2,w
  7312     093A  024E               	subwf	___flge@ff1+2,w
  7313     093B  1D03               	skipz
  7314     093C  2943               	goto	u4315
  7315     093D  0851               	movf	___flge@ff2+1,w
  7316     093E  024D               	subwf	___flge@ff1+1,w
  7317     093F  1D03               	skipz
  7318     0940  2943               	goto	u4315
  7319     0941  0850               	movf	___flge@ff2,w
  7320     0942  024C               	subwf	___flge@ff1,w
  7321     0943                     u4315:
  7322     0943  1803               	skipnc
  7323     0944  2946               	goto	u4311
  7324     0945  2947               	goto	u4310
  7325     0946                     u4311:
  7326     0946  2949               	goto	l3329
  7327     0947                     u4310:
  7328     0947                     l3327:
  7329     0947  1003               	clrc
  7330     0948  294A               	goto	l625
  7331     0949                     l3329:
  7332     0949  1403               	setc
  7333     094A                     l625:
  7334     094A  0008               	return
  7335     094B                     __end_of___flge:
  7336                           
  7337                           	psect	text15
  7338     1609                     __ptext15:	
  7339 ;; *************** function ___awmod *****************
  7340 ;; Defined at:
  7341 ;;		line 5 in file "C:\Program Files\Microchip\xc8\v3.00\pic\sources\c99\common\awmod.c"
  7342 ;; Parameters:    Size  Location     Type
  7343 ;;  divisor         2    2[COMMON] int 
  7344 ;;  dividend        2    4[COMMON] int 
  7345 ;; Auto vars:     Size  Location     Type
  7346 ;;  sign            1    7[COMMON] unsigned char 
  7347 ;;  counter         1    6[COMMON] unsigned char 
  7348 ;; Return value:  Size  Location     Type
  7349 ;;                  2    2[COMMON] int 
  7350 ;; Registers used:
  7351 ;;		wreg, status,2, status,0
  7352 ;; Tracked objects:
  7353 ;;		On entry : 0/0
  7354 ;;		On exit  : 0/0
  7355 ;;		Unchanged: 0/0
  7356 ;; Data sizes:     COMMON   BANK0   BANK1   BANK3   BANK2
  7357 ;;      Params:         4       0       0       0       0
  7358 ;;      Locals:         2       0       0       0       0
  7359 ;;      Temps:          0       0       0       0       0
  7360 ;;      Totals:         6       0       0       0       0
  7361 ;;Total ram usage:        6 bytes
  7362 ;; Hardware stack levels used: 1
  7363 ;; Hardware stack levels required when called: 1
  7364 ;; This function calls:
  7365 ;;		Nothing
  7366 ;; This function is called by:
  7367 ;;		_water_level_screen
  7368 ;;		_run_program
  7369 ;; This function uses a non-reentrant model
  7370 ;;
  7371                           
  7372     1609                     ___awmod:	
  7373                           ;psect for function ___awmod
  7374                           
  7375     1609                     l3275:	
  7376                           ;incstack = 0
  7377                           ; Regs used in ___awmod: [wreg+status,2+status,0]
  7378                           
  7379     1609  01F7               	clrf	___awmod@sign
  7380     160A                     l3277:
  7381     160A  1FF5               	btfss	___awmod@dividend+1,7
  7382     160B  2E0D               	goto	u4161
  7383     160C  2E0E               	goto	u4160
  7384     160D                     u4161:
  7385     160D  2E15               	goto	l3283
  7386     160E                     u4160:
  7387     160E                     l3279:
  7388     160E  09F4               	comf	___awmod@dividend,f
  7389     160F  09F5               	comf	___awmod@dividend+1,f
  7390     1610  0AF4               	incf	___awmod@dividend,f
  7391     1611  1903               	skipnz
  7392     1612  0AF5               	incf	___awmod@dividend+1,f
  7393     1613                     l3281:
  7394     1613  3001               	movlw	1
  7395     1614  00F7               	movwf	___awmod@sign
  7396     1615                     l3283:
  7397     1615  1FF3               	btfss	___awmod@divisor+1,7
  7398     1616  2E18               	goto	u4171
  7399     1617  2E19               	goto	u4170
  7400     1618                     u4171:
  7401     1618  2E1E               	goto	l3287
  7402     1619                     u4170:
  7403     1619                     l3285:
  7404     1619  09F2               	comf	___awmod@divisor,f
  7405     161A  09F3               	comf	___awmod@divisor+1,f
  7406     161B  0AF2               	incf	___awmod@divisor,f
  7407     161C  1903               	skipnz
  7408     161D  0AF3               	incf	___awmod@divisor+1,f
  7409     161E                     l3287:
  7410     161E  0872               	movf	___awmod@divisor,w
  7411     161F  0473               	iorwf	___awmod@divisor+1,w
  7412     1620  1903               	btfsc	3,2
  7413     1621  2E23               	goto	u4181
  7414     1622  2E24               	goto	u4180
  7415     1623                     u4181:
  7416     1623  2E51               	goto	l3305
  7417     1624                     u4180:
  7418     1624                     l3289:
  7419     1624  3001               	movlw	1
  7420     1625  00F6               	movwf	___awmod@counter
  7421     1626  2E30               	goto	l3295
  7422     1627                     l3291:
  7423     1627  3001               	movlw	1
  7424     1628                     u4195:
  7425     1628  1003               	clrc
  7426     1629  0DF2               	rlf	___awmod@divisor,f
  7427     162A  0DF3               	rlf	___awmod@divisor+1,f
  7428     162B  3EFF               	addlw	-1
  7429     162C  1D03               	skipz
  7430     162D  2E28               	goto	u4195
  7431     162E                     l3293:
  7432     162E  3001               	movlw	1
  7433     162F  07F6               	addwf	___awmod@counter,f
  7434     1630                     l3295:
  7435     1630  1FF3               	btfss	___awmod@divisor+1,7
  7436     1631  2E33               	goto	u4201
  7437     1632  2E34               	goto	u4200
  7438     1633                     u4201:
  7439     1633  2E27               	goto	l3291
  7440     1634                     u4200:
  7441     1634                     l3297:
  7442     1634  0873               	movf	___awmod@divisor+1,w
  7443     1635  0275               	subwf	___awmod@dividend+1,w
  7444     1636  1D03               	skipz
  7445     1637  2E3A               	goto	u4215
  7446     1638  0872               	movf	___awmod@divisor,w
  7447     1639  0274               	subwf	___awmod@dividend,w
  7448     163A                     u4215:
  7449     163A  1C03               	skipc
  7450     163B  2E3D               	goto	u4211
  7451     163C  2E3E               	goto	u4210
  7452     163D                     u4211:
  7453     163D  2E44               	goto	l3301
  7454     163E                     u4210:
  7455     163E                     l3299:
  7456     163E  0872               	movf	___awmod@divisor,w
  7457     163F  02F4               	subwf	___awmod@dividend,f
  7458     1640  0873               	movf	___awmod@divisor+1,w
  7459     1641  1C03               	skipc
  7460     1642  03F5               	decf	___awmod@dividend+1,f
  7461     1643  02F5               	subwf	___awmod@dividend+1,f
  7462     1644                     l3301:
  7463     1644  3001               	movlw	1
  7464     1645                     u4225:
  7465     1645  1003               	clrc
  7466     1646  0CF3               	rrf	___awmod@divisor+1,f
  7467     1647  0CF2               	rrf	___awmod@divisor,f
  7468     1648  3EFF               	addlw	-1
  7469     1649  1D03               	skipz
  7470     164A  2E45               	goto	u4225
  7471     164B                     l3303:
  7472     164B  3001               	movlw	1
  7473     164C  02F6               	subwf	___awmod@counter,f
  7474     164D  1D03               	btfss	3,2
  7475     164E  2E50               	goto	u4231
  7476     164F  2E51               	goto	u4230
  7477     1650                     u4231:
  7478     1650  2E34               	goto	l3297
  7479     1651                     u4230:
  7480     1651                     l3305:
  7481     1651  0877               	movf	___awmod@sign,w
  7482     1652  1903               	btfsc	3,2
  7483     1653  2E55               	goto	u4241
  7484     1654  2E56               	goto	u4240
  7485     1655                     u4241:
  7486     1655  2E5B               	goto	l3309
  7487     1656                     u4240:
  7488     1656                     l3307:
  7489     1656  09F4               	comf	___awmod@dividend,f
  7490     1657  09F5               	comf	___awmod@dividend+1,f
  7491     1658  0AF4               	incf	___awmod@dividend,f
  7492     1659  1903               	skipnz
  7493     165A  0AF5               	incf	___awmod@dividend+1,f
  7494     165B                     l3309:
  7495     165B  0875               	movf	___awmod@dividend+1,w
  7496     165C  00F3               	movwf	?___awmod+1
  7497     165D  0874               	movf	___awmod@dividend,w
  7498     165E  00F2               	movwf	?___awmod
  7499     165F                     l605:
  7500     165F  0008               	return
  7501     1660                     __end_of___awmod:
  7502                           
  7503                           	psect	text16
  7504     16BE                     __ptext16:	
  7505 ;; *************** function ___awdiv *****************
  7506 ;; Defined at:
  7507 ;;		line 5 in file "C:\Program Files\Microchip\xc8\v3.00\pic\sources\c99\common\awdiv.c"
  7508 ;; Parameters:    Size  Location     Type
  7509 ;;  divisor         2    2[COMMON] int 
  7510 ;;  dividend        2    4[COMMON] int 
  7511 ;; Auto vars:     Size  Location     Type
  7512 ;;  quotient        2    2[BANK0 ] int 
  7513 ;;  sign            1    1[BANK0 ] unsigned char 
  7514 ;;  counter         1    0[BANK0 ] unsigned char 
  7515 ;; Return value:  Size  Location     Type
  7516 ;;                  2    2[COMMON] int 
  7517 ;; Registers used:
  7518 ;;		wreg, status,2, status,0
  7519 ;; Tracked objects:
  7520 ;;		On entry : 0/0
  7521 ;;		On exit  : 0/0
  7522 ;;		Unchanged: 0/0
  7523 ;; Data sizes:     COMMON   BANK0   BANK1   BANK3   BANK2
  7524 ;;      Params:         4       0       0       0       0
  7525 ;;      Locals:         0       4       0       0       0
  7526 ;;      Temps:          0       0       0       0       0
  7527 ;;      Totals:         4       4       0       0       0
  7528 ;;Total ram usage:        8 bytes
  7529 ;; Hardware stack levels used: 1
  7530 ;; Hardware stack levels required when called: 1
  7531 ;; This function calls:
  7532 ;;		Nothing
  7533 ;; This function is called by:
  7534 ;;		_run_program
  7535 ;; This function uses a non-reentrant model
  7536 ;;
  7537                           
  7538     16BE                     ___awdiv:	
  7539                           ;psect for function ___awdiv
  7540                           
  7541     16BE                     l4029:	
  7542                           ;incstack = 0
  7543                           ; Regs used in ___awdiv: [wreg+status,2+status,0]
  7544                           
  7545     16BE  1283               	bcf	3,5	;RP0=0, select bank0
  7546     16BF  1303               	bcf	3,6	;RP1=0, select bank0
  7547     16C0  01A1               	clrf	___awdiv@sign
  7548     16C1                     l4031:
  7549     16C1  1FF3               	btfss	___awdiv@divisor+1,7
  7550     16C2  2EC4               	goto	u5331
  7551     16C3  2EC5               	goto	u5330
  7552     16C4                     u5331:
  7553     16C4  2ECC               	goto	l4037
  7554     16C5                     u5330:
  7555     16C5                     l4033:
  7556     16C5  09F2               	comf	___awdiv@divisor,f
  7557     16C6  09F3               	comf	___awdiv@divisor+1,f
  7558     16C7  0AF2               	incf	___awdiv@divisor,f
  7559     16C8  1903               	skipnz
  7560     16C9  0AF3               	incf	___awdiv@divisor+1,f
  7561     16CA                     l4035:
  7562     16CA  3001               	movlw	1
  7563     16CB  00A1               	movwf	___awdiv@sign
  7564     16CC                     l4037:
  7565     16CC  1FF5               	btfss	___awdiv@dividend+1,7
  7566     16CD  2ECF               	goto	u5341
  7567     16CE  2ED0               	goto	u5340
  7568     16CF                     u5341:
  7569     16CF  2ED7               	goto	l4043
  7570     16D0                     u5340:
  7571     16D0                     l4039:
  7572     16D0  09F4               	comf	___awdiv@dividend,f
  7573     16D1  09F5               	comf	___awdiv@dividend+1,f
  7574     16D2  0AF4               	incf	___awdiv@dividend,f
  7575     16D3  1903               	skipnz
  7576     16D4  0AF5               	incf	___awdiv@dividend+1,f
  7577     16D5                     l4041:
  7578     16D5  3001               	movlw	1
  7579     16D6  06A1               	xorwf	___awdiv@sign,f
  7580     16D7                     l4043:
  7581     16D7  01A2               	clrf	___awdiv@quotient
  7582     16D8  01A3               	clrf	___awdiv@quotient+1
  7583     16D9                     l4045:
  7584     16D9  0872               	movf	___awdiv@divisor,w
  7585     16DA  0473               	iorwf	___awdiv@divisor+1,w
  7586     16DB  1903               	btfsc	3,2
  7587     16DC  2EDE               	goto	u5351
  7588     16DD  2EDF               	goto	u5350
  7589     16DE                     u5351:
  7590     16DE  2F14               	goto	l4065
  7591     16DF                     u5350:
  7592     16DF                     l4047:
  7593     16DF  3001               	movlw	1
  7594     16E0  00A0               	movwf	___awdiv@counter
  7595     16E1  2EEB               	goto	l4053
  7596     16E2                     l4049:
  7597     16E2  3001               	movlw	1
  7598     16E3                     u5365:
  7599     16E3  1003               	clrc
  7600     16E4  0DF2               	rlf	___awdiv@divisor,f
  7601     16E5  0DF3               	rlf	___awdiv@divisor+1,f
  7602     16E6  3EFF               	addlw	-1
  7603     16E7  1D03               	skipz
  7604     16E8  2EE3               	goto	u5365
  7605     16E9                     l4051:
  7606     16E9  3001               	movlw	1
  7607     16EA  07A0               	addwf	___awdiv@counter,f
  7608     16EB                     l4053:
  7609     16EB  1FF3               	btfss	___awdiv@divisor+1,7
  7610     16EC  2EEE               	goto	u5371
  7611     16ED  2EEF               	goto	u5370
  7612     16EE                     u5371:
  7613     16EE  2EE2               	goto	l4049
  7614     16EF                     u5370:
  7615     16EF                     l4055:
  7616     16EF  3001               	movlw	1
  7617     16F0                     u5385:
  7618     16F0  1003               	clrc
  7619     16F1  0DA2               	rlf	___awdiv@quotient,f
  7620     16F2  0DA3               	rlf	___awdiv@quotient+1,f
  7621     16F3  3EFF               	addlw	-1
  7622     16F4  1D03               	skipz
  7623     16F5  2EF0               	goto	u5385
  7624     16F6  0873               	movf	___awdiv@divisor+1,w
  7625     16F7  0275               	subwf	___awdiv@dividend+1,w
  7626     16F8  1D03               	skipz
  7627     16F9  2EFC               	goto	u5395
  7628     16FA  0872               	movf	___awdiv@divisor,w
  7629     16FB  0274               	subwf	___awdiv@dividend,w
  7630     16FC                     u5395:
  7631     16FC  1C03               	skipc
  7632     16FD  2EFF               	goto	u5391
  7633     16FE  2F00               	goto	u5390
  7634     16FF                     u5391:
  7635     16FF  2F07               	goto	l4061
  7636     1700                     u5390:
  7637     1700                     l4057:
  7638     1700  0872               	movf	___awdiv@divisor,w
  7639     1701  02F4               	subwf	___awdiv@dividend,f
  7640     1702  0873               	movf	___awdiv@divisor+1,w
  7641     1703  1C03               	skipc
  7642     1704  03F5               	decf	___awdiv@dividend+1,f
  7643     1705  02F5               	subwf	___awdiv@dividend+1,f
  7644     1706                     l4059:
  7645     1706  1422               	bsf	___awdiv@quotient,0
  7646     1707                     l4061:
  7647     1707  3001               	movlw	1
  7648     1708                     u5405:
  7649     1708  1003               	clrc
  7650     1709  0CF3               	rrf	___awdiv@divisor+1,f
  7651     170A  0CF2               	rrf	___awdiv@divisor,f
  7652     170B  3EFF               	addlw	-1
  7653     170C  1D03               	skipz
  7654     170D  2F08               	goto	u5405
  7655     170E                     l4063:
  7656     170E  3001               	movlw	1
  7657     170F  02A0               	subwf	___awdiv@counter,f
  7658     1710  1D03               	btfss	3,2
  7659     1711  2F13               	goto	u5411
  7660     1712  2F14               	goto	u5410
  7661     1713                     u5411:
  7662     1713  2EEF               	goto	l4055
  7663     1714                     u5410:
  7664     1714                     l4065:
  7665     1714  0821               	movf	___awdiv@sign,w
  7666     1715  1903               	btfsc	3,2
  7667     1716  2F18               	goto	u5421
  7668     1717  2F19               	goto	u5420
  7669     1718                     u5421:
  7670     1718  2F1E               	goto	l4069
  7671     1719                     u5420:
  7672     1719                     l4067:
  7673     1719  09A2               	comf	___awdiv@quotient,f
  7674     171A  09A3               	comf	___awdiv@quotient+1,f
  7675     171B  0AA2               	incf	___awdiv@quotient,f
  7676     171C  1903               	skipnz
  7677     171D  0AA3               	incf	___awdiv@quotient+1,f
  7678     171E                     l4069:
  7679     171E  0823               	movf	___awdiv@quotient+1,w
  7680     171F  00F3               	movwf	?___awdiv+1
  7681     1720  0822               	movf	___awdiv@quotient,w
  7682     1721  00F2               	movwf	?___awdiv
  7683     1722                     l592:
  7684     1722  0008               	return
  7685     1723                     __end_of___awdiv:
  7686                           
  7687                           	psect	text17
  7688     1723                     __ptext17:	
  7689 ;; *************** function _read_digital_keypad *****************
  7690 ;; Defined at:
  7691 ;;		line 8 in file "../../Internship Project/Emertxe project/Washing_Machine.X/digital_keypad.c"
  7692 ;; Parameters:    Size  Location     Type
  7693 ;;  mode            1    wreg     unsigned char 
  7694 ;; Auto vars:     Size  Location     Type
  7695 ;;  mode            1    0[COMMON] unsigned char 
  7696 ;;  key             1    2[COMMON] unsigned char 
  7697 ;; Return value:  Size  Location     Type
  7698 ;;                  1    wreg      unsigned char 
  7699 ;; Registers used:
  7700 ;;		wreg, status,2, status,0, btemp+1
  7701 ;; Tracked objects:
  7702 ;;		On entry : 0/0
  7703 ;;		On exit  : 0/0
  7704 ;;		Unchanged: 0/0
  7705 ;; Data sizes:     COMMON   BANK0   BANK1   BANK3   BANK2
  7706 ;;      Params:         0       0       0       0       0
  7707 ;;      Locals:         1       0       0       0       0
  7708 ;;      Temps:          0       0       0       0       0
  7709 ;;      Totals:         1       0       0       0       0
  7710 ;;Total ram usage:        1 bytes
  7711 ;; Hardware stack levels used: 1
  7712 ;; Hardware stack levels required when called: 1
  7713 ;; This function calls:
  7714 ;;		Nothing
  7715 ;; This function is called by:
  7716 ;;		_main
  7717 ;; This function uses a non-reentrant model
  7718 ;;
  7719                           
  7720     1723                     _read_digital_keypad:	
  7721                           ;psect for function _read_digital_keypad
  7722                           
  7723     1723                     l3575:	
  7724                           ;incstack = 0
  7725                           ; Regs used in _read_digital_keypad: [wreg+status,2+status,0+btemp+1]
  7726                           
  7727                           
  7728                           ;../../Internship Project/Emertxe project/Washing_Machine.X/digital_keypad.c: 9:     sta
      +                          tic char once = 1;;../../Internship Project/Emertxe project/Washing_Machine.X/digital_ke
      +                          ypad.c: 10:     static int longpressed = 1;;../../Internship Project/Emertxe project/Was
      +                          hing_Machine.X/digital_keypad.c: 11:     static unsigned char pre_key;;../../Internship 
      +                          Project/Emertxe project/Washing_Machine.X/digital_keypad.c: 12:     unsigned char key = 
      +                          PORTB & 0x3F;
  7729     1723  1283               	bcf	3,5	;RP0=0, select bank0
  7730     1724  1303               	bcf	3,6	;RP1=0, select bank0
  7731     1725  0806               	movf	6,w	;volatile
  7732     1726  00F2               	movwf	read_digital_keypad@key
  7733     1727                     l3577:
  7734     1727  303F               	movlw	63
  7735     1728  05F2               	andwf	read_digital_keypad@key,f
  7736     1729                     l3579:
  7737                           
  7738                           ;../../Internship Project/Emertxe project/Washing_Machine.X/digital_keypad.c: 13:     if
      +                           (key != 0x3F && once) {
  7739     1729  303F               	movlw	63
  7740     172A  0672               	xorwf	read_digital_keypad@key,w
  7741     172B  1903               	btfsc	3,2
  7742     172C  2F2E               	goto	u4931
  7743     172D  2F2F               	goto	u4930
  7744     172E                     u4931:
  7745     172E  2F3A               	goto	l3587
  7746     172F                     u4930:
  7747     172F                     l3581:
  7748     172F  087B               	movf	read_digital_keypad@once,w
  7749     1730  1903               	btfsc	3,2
  7750     1731  2F33               	goto	u4941
  7751     1732  2F34               	goto	u4940
  7752     1733                     u4941:
  7753     1733  2F3A               	goto	l3587
  7754     1734                     u4940:
  7755     1734                     l3583:
  7756                           
  7757                           ;../../Internship Project/Emertxe project/Washing_Machine.X/digital_keypad.c: 14:       
      +                            once = 0;
  7758     1734  01FB               	clrf	read_digital_keypad@once
  7759                           
  7760                           ;../../Internship Project/Emertxe project/Washing_Machine.X/digital_keypad.c: 15:       
      +                            longpressed = 0;
  7761     1735  01EC               	clrf	read_digital_keypad@longpressed
  7762     1736  01ED               	clrf	read_digital_keypad@longpressed+1
  7763     1737                     l3585:
  7764                           
  7765                           ;../../Internship Project/Emertxe project/Washing_Machine.X/digital_keypad.c: 16:       
      +                            pre_key = key;
  7766     1737  0872               	movf	read_digital_keypad@key,w
  7767     1738  00EB               	movwf	read_digital_keypad@pre_key
  7768                           
  7769                           ;../../Internship Project/Emertxe project/Washing_Machine.X/digital_keypad.c: 17:     } 
      +                          else if (key == 0x3F && !once) {
  7770     1739  2F8F               	goto	l3615
  7771     173A                     l3587:
  7772     173A  303F               	movlw	63
  7773     173B  0672               	xorwf	read_digital_keypad@key,w
  7774     173C  1D03               	btfss	3,2
  7775     173D  2F3F               	goto	u4951
  7776     173E  2F40               	goto	u4950
  7777     173F                     u4951:
  7778     173F  2F58               	goto	l3599
  7779     1740                     u4950:
  7780     1740                     l3589:
  7781     1740  087B               	movf	read_digital_keypad@once,w
  7782     1741  1D03               	btfss	3,2
  7783     1742  2F44               	goto	u4961
  7784     1743  2F45               	goto	u4960
  7785     1744                     u4961:
  7786     1744  2F58               	goto	l3599
  7787     1745                     u4960:
  7788     1745                     l3591:
  7789                           
  7790                           ;../../Internship Project/Emertxe project/Washing_Machine.X/digital_keypad.c: 18:       
      +                            once = 1;
  7791     1745  3001               	movlw	1
  7792     1746  00FB               	movwf	read_digital_keypad@once
  7793     1747                     l3593:
  7794                           
  7795                           ;../../Internship Project/Emertxe project/Washing_Machine.X/digital_keypad.c: 19:       
      +                            if (longpressed < 30) {
  7796     1747  086D               	movf	read_digital_keypad@longpressed+1,w
  7797     1748  3A80               	xorlw	128
  7798     1749  00FF               	movwf	btemp+1
  7799     174A  3080               	movlw	128
  7800     174B  027F               	subwf	btemp+1,w
  7801     174C  1D03               	skipz
  7802     174D  2F50               	goto	u4975
  7803     174E  301E               	movlw	30
  7804     174F  026C               	subwf	read_digital_keypad@longpressed,w
  7805     1750                     u4975:
  7806     1750  1803               	skipnc
  7807     1751  2F53               	goto	u4971
  7808     1752  2F54               	goto	u4970
  7809     1753                     u4971:
  7810     1753  2F8F               	goto	l3615
  7811     1754                     u4970:
  7812     1754                     l3595:
  7813                           
  7814                           ;../../Internship Project/Emertxe project/Washing_Machine.X/digital_keypad.c: 20:       
      +                                return pre_key;
  7815     1754  1283               	bcf	3,5	;RP0=0, select bank0
  7816     1755  1303               	bcf	3,6	;RP1=0, select bank0
  7817     1756  086B               	movf	read_digital_keypad@pre_key,w
  7818     1757  2F90               	goto	l123
  7819     1758                     l3599:
  7820     1758  087B               	movf	read_digital_keypad@once,w
  7821     1759  1D03               	btfss	3,2
  7822     175A  2F5C               	goto	u4981
  7823     175B  2F5D               	goto	u4980
  7824     175C                     u4981:
  7825     175C  2F73               	goto	l3605
  7826     175D                     u4980:
  7827     175D                     l3601:
  7828     175D  086D               	movf	read_digital_keypad@longpressed+1,w
  7829     175E  3A80               	xorlw	128
  7830     175F  00FF               	movwf	btemp+1
  7831     1760  3080               	movlw	128
  7832     1761  027F               	subwf	btemp+1,w
  7833     1762  1D03               	skipz
  7834     1763  2F66               	goto	u4995
  7835     1764  301F               	movlw	31
  7836     1765  026C               	subwf	read_digital_keypad@longpressed,w
  7837     1766                     u4995:
  7838     1766  1803               	skipnc
  7839     1767  2F69               	goto	u4991
  7840     1768  2F6A               	goto	u4990
  7841     1769                     u4991:
  7842     1769  2F73               	goto	l3605
  7843     176A                     u4990:
  7844     176A                     l3603:
  7845                           
  7846                           ;../../Internship Project/Emertxe project/Washing_Machine.X/digital_keypad.c: 23:       
      +                            longpressed++;
  7847     176A  3001               	movlw	1
  7848     176B  1283               	bcf	3,5	;RP0=0, select bank0
  7849     176C  1303               	bcf	3,6	;RP1=0, select bank0
  7850     176D  07EC               	addwf	read_digital_keypad@longpressed,f
  7851     176E  1803               	skipnc
  7852     176F  0AED               	incf	read_digital_keypad@longpressed+1,f
  7853     1770  3000               	movlw	0
  7854     1771  07ED               	addwf	read_digital_keypad@longpressed+1,f
  7855                           
  7856                           ;../../Internship Project/Emertxe project/Washing_Machine.X/digital_keypad.c: 24:     } 
      +                          else if (!once && longpressed == 31 && key == 0x37) {
  7857     1772  2F8F               	goto	l3615
  7858     1773                     l3605:
  7859     1773  087B               	movf	read_digital_keypad@once,w
  7860     1774  1D03               	btfss	3,2
  7861     1775  2F77               	goto	u5001
  7862     1776  2F78               	goto	u5000
  7863     1777                     u5001:
  7864     1777  2F8F               	goto	l124
  7865     1778                     u5000:
  7866     1778                     l3607:
  7867     1778  301F               	movlw	31
  7868     1779  1283               	bcf	3,5	;RP0=0, select bank0
  7869     177A  1303               	bcf	3,6	;RP1=0, select bank0
  7870     177B  066C               	xorwf	read_digital_keypad@longpressed,w
  7871     177C  046D               	iorwf	read_digital_keypad@longpressed+1,w
  7872     177D  1D03               	btfss	3,2
  7873     177E  2F80               	goto	u5011
  7874     177F  2F81               	goto	u5010
  7875     1780                     u5011:
  7876     1780  2F8F               	goto	l124
  7877     1781                     u5010:
  7878     1781                     l3609:
  7879     1781  3037               	movlw	55
  7880     1782  0672               	xorwf	read_digital_keypad@key,w
  7881     1783  1D03               	btfss	3,2
  7882     1784  2F86               	goto	u5021
  7883     1785  2F87               	goto	u5020
  7884     1786                     u5021:
  7885     1786  2F8F               	goto	l124
  7886     1787                     u5020:
  7887     1787                     l3611:
  7888                           
  7889                           ;../../Internship Project/Emertxe project/Washing_Machine.X/digital_keypad.c: 25:       
      +                            longpressed++;
  7890     1787  3001               	movlw	1
  7891     1788  07EC               	addwf	read_digital_keypad@longpressed,f
  7892     1789  1803               	skipnc
  7893     178A  0AED               	incf	read_digital_keypad@longpressed+1,f
  7894     178B  3000               	movlw	0
  7895     178C  07ED               	addwf	read_digital_keypad@longpressed+1,f
  7896                           
  7897                           ;../../Internship Project/Emertxe project/Washing_Machine.X/digital_keypad.c: 26:       
      +                            return 0x99;
  7898     178D  3099               	movlw	153
  7899     178E  2F90               	goto	l123
  7900     178F                     l124:
  7901     178F                     l3615:
  7902                           
  7903                           ;../../Internship Project/Emertxe project/Washing_Machine.X/digital_keypad.c: 28:     re
      +                          turn 0x3F;
  7904     178F  303F               	movlw	63
  7905     1790                     l123:
  7906     1790  0008               	return
  7907     1791                     __end_of_read_digital_keypad:
  7908                           
  7909                           	psect	text18
  7910     1791                     __ptext18:	
  7911 ;; *************** function _power_on_screen *****************
  7912 ;; Defined at:
  7913 ;;		line 12 in file "../../../../Downloads/Project/Emertxe project/Washing_Machine.X/washiing_machine_function_def.c"
  7914 ;; Parameters:    Size  Location     Type
  7915 ;;		None
  7916 ;; Auto vars:     Size  Location     Type
  7917 ;;  i               1    9[BANK0 ] unsigned char 
  7918 ;;  i               1    8[BANK0 ] unsigned char 
  7919 ;; Return value:  Size  Location     Type
  7920 ;;                  1    wreg      void 
  7921 ;; Registers used:
  7922 ;;		wreg, fsr0l, fsr0h, status,2, status,0, btemp+1, pclath, cstack
  7923 ;; Tracked objects:
  7924 ;;		On entry : 0/0
  7925 ;;		On exit  : 0/0
  7926 ;;		Unchanged: 0/0
  7927 ;; Data sizes:     COMMON   BANK0   BANK1   BANK3   BANK2
  7928 ;;      Params:         0       0       0       0       0
  7929 ;;      Locals:         0       2       0       0       0
  7930 ;;      Temps:          0       3       0       0       0
  7931 ;;      Totals:         0       5       0       0       0
  7932 ;;Total ram usage:        5 bytes
  7933 ;; Hardware stack levels used: 1
  7934 ;; Hardware stack levels required when called: 3
  7935 ;; This function calls:
  7936 ;;		_clcd_print
  7937 ;;		_clcd_putch
  7938 ;; This function is called by:
  7939 ;;		_main
  7940 ;; This function uses a non-reentrant model
  7941 ;;
  7942                           
  7943     1791                     _power_on_screen:	
  7944                           ;psect for function _power_on_screen
  7945                           
  7946     1791                     l3619:	
  7947                           ;incstack = 0
  7948                           ; Regs used in _power_on_screen: [wreg-fsr0h+status,2+status,0+btemp+1+pclath+cstack]
  7949                           
  7950                           
  7951                           ;../../../../Downloads/Project/Emertxe project/Washing_Machine.X/washiing_machine_functi
      +                          on_def.c: 14:     for (unsigned char i = 0; i < 16; i++) {
  7952     1791  1283               	bcf	3,5	;RP0=0, select bank0
  7953     1792  1303               	bcf	3,6	;RP1=0, select bank0
  7954     1793  01A8               	clrf	power_on_screen@i
  7955     1794                     l3625:
  7956                           
  7957                           ;../../../../Downloads/Project/Emertxe project/Washing_Machine.X/washiing_machine_functi
      +                          on_def.c: 15:         clcd_putch(0xFF, (0x80 + i));
  7958     1794  0828               	movf	power_on_screen@i,w
  7959     1795  3E80               	addlw	128
  7960     1796  00F8               	movwf	clcd_putch@addr
  7961     1797  30FF               	movlw	255
  7962     1798  160A  118A  2478  160A  118A  	fcall	_clcd_putch
  7963     179D                     l3627:
  7964                           
  7965                           ;../../../../Downloads/Project/Emertxe project/Washing_Machine.X/washiing_machine_functi
      +                          on_def.c: 16:         _delay((unsigned long)((50)*(20000000/4000.0)));
  7966     179D  3002               	movlw	2
  7967     179E  1283               	bcf	3,5	;RP0=0, select bank0
  7968     179F  1303               	bcf	3,6	;RP1=0, select bank0
  7969     17A0  00A7               	movwf	??_power_on_screen+2
  7970     17A1  3045               	movlw	69
  7971     17A2  00A6               	movwf	??_power_on_screen+1
  7972     17A3  30A9               	movlw	169
  7973     17A4  00A5               	movwf	??_power_on_screen
  7974     17A5                     u5707:
  7975     17A5  0BA5               	decfsz	??_power_on_screen,f
  7976     17A6  2FA5               	goto	u5707
  7977     17A7  0BA6               	decfsz	??_power_on_screen+1,f
  7978     17A8  2FA5               	goto	u5707
  7979     17A9  0BA7               	decfsz	??_power_on_screen+2,f
  7980     17AA  2FA5               	goto	u5707
  7981     17AB                     l3629:
  7982                           
  7983                           ;../../../../Downloads/Project/Emertxe project/Washing_Machine.X/washiing_machine_functi
      +                          on_def.c: 17:     }
  7984     17AB  3001               	movlw	1
  7985     17AC  1283               	bcf	3,5	;RP0=0, select bank0
  7986     17AD  1303               	bcf	3,6	;RP1=0, select bank0
  7987     17AE  07A8               	addwf	power_on_screen@i,f
  7988     17AF                     l3631:
  7989     17AF  3010               	movlw	16
  7990     17B0  0228               	subwf	power_on_screen@i,w
  7991     17B1  1C03               	skipc
  7992     17B2  2FB4               	goto	u5031
  7993     17B3  2FB5               	goto	u5030
  7994     17B4                     u5031:
  7995     17B4  2F94               	goto	l3625
  7996     17B5                     u5030:
  7997     17B5                     l3633:
  7998                           
  7999                           ;../../../../Downloads/Project/Emertxe project/Washing_Machine.X/washiing_machine_functi
      +                          on_def.c: 19:     clcd_print("POWERING ON ", (0xC0 + 1));
  8000     17B5  3084               	movlw	low (STR_19| (0+32768))
  8001     17B6  00A0               	movwf	clcd_print@str
  8002     17B7  3090               	movlw	high (STR_19| (0+32768))
  8003     17B8  00A1               	movwf	clcd_print@str+1
  8004     17B9  30C1               	movlw	193
  8005     17BA  00A2               	movwf	clcd_print@addr
  8006     17BB  160A  118A  2532  160A  118A  	fcall	_clcd_print
  8007                           
  8008                           ;../../../../Downloads/Project/Emertxe project/Washing_Machine.X/washiing_machine_functi
      +                          on_def.c: 20:     clcd_print("WASHING MACHINE ", (0x90 + 1));
  8009     17C0  3024               	movlw	low (STR_20| (0+32768))
  8010     17C1  1283               	bcf	3,5	;RP0=0, select bank0
  8011     17C2  1303               	bcf	3,6	;RP1=0, select bank0
  8012     17C3  00A0               	movwf	clcd_print@str
  8013     17C4  3090               	movlw	high (STR_20| (0+32768))
  8014     17C5  00A1               	movwf	clcd_print@str+1
  8015     17C6  3091               	movlw	145
  8016     17C7  00A2               	movwf	clcd_print@addr
  8017     17C8  160A  118A  2532  160A  118A  	fcall	_clcd_print
  8018     17CD                     l3635:
  8019                           
  8020                           ;../../../../Downloads/Project/Emertxe project/Washing_Machine.X/washiing_machine_functi
      +                          on_def.c: 22:     for (unsigned char i = 0; i < 16; i++) {
  8021     17CD  1283               	bcf	3,5	;RP0=0, select bank0
  8022     17CE  1303               	bcf	3,6	;RP1=0, select bank0
  8023     17CF  01A9               	clrf	power_on_screen@i_186
  8024     17D0                     l3641:
  8025                           
  8026                           ;../../../../Downloads/Project/Emertxe project/Washing_Machine.X/washiing_machine_functi
      +                          on_def.c: 23:         clcd_putch(0xFF, (0xD0 + i));
  8027     17D0  0829               	movf	power_on_screen@i_186,w
  8028     17D1  3ED0               	addlw	208
  8029     17D2  00F8               	movwf	clcd_putch@addr
  8030     17D3  30FF               	movlw	255
  8031     17D4  160A  118A  2478  160A  118A  	fcall	_clcd_putch
  8032     17D9                     l3643:
  8033                           
  8034                           ;../../../../Downloads/Project/Emertxe project/Washing_Machine.X/washiing_machine_functi
      +                          on_def.c: 24:         _delay((unsigned long)((50)*(20000000/4000.0)));
  8035     17D9  3002               	movlw	2
  8036     17DA  1283               	bcf	3,5	;RP0=0, select bank0
  8037     17DB  1303               	bcf	3,6	;RP1=0, select bank0
  8038     17DC  00A7               	movwf	??_power_on_screen+2
  8039     17DD  3045               	movlw	69
  8040     17DE  00A6               	movwf	??_power_on_screen+1
  8041     17DF  30A9               	movlw	169
  8042     17E0  00A5               	movwf	??_power_on_screen
  8043     17E1                     u5717:
  8044     17E1  0BA5               	decfsz	??_power_on_screen,f
  8045     17E2  2FE1               	goto	u5717
  8046     17E3  0BA6               	decfsz	??_power_on_screen+1,f
  8047     17E4  2FE1               	goto	u5717
  8048     17E5  0BA7               	decfsz	??_power_on_screen+2,f
  8049     17E6  2FE1               	goto	u5717
  8050     17E7                     l3645:
  8051                           
  8052                           ;../../../../Downloads/Project/Emertxe project/Washing_Machine.X/washiing_machine_functi
      +                          on_def.c: 25:     }
  8053     17E7  3001               	movlw	1
  8054     17E8  1283               	bcf	3,5	;RP0=0, select bank0
  8055     17E9  1303               	bcf	3,6	;RP1=0, select bank0
  8056     17EA  07A9               	addwf	power_on_screen@i_186,f
  8057     17EB                     l3647:
  8058     17EB  3010               	movlw	16
  8059     17EC  0229               	subwf	power_on_screen@i_186,w
  8060     17ED  1C03               	skipc
  8061     17EE  2FF0               	goto	u5041
  8062     17EF  2FF1               	goto	u5040
  8063     17F0                     u5041:
  8064     17F0  2FD0               	goto	l3641
  8065     17F1                     u5040:
  8066     17F1                     l3649:
  8067                           
  8068                           ;../../../../Downloads/Project/Emertxe project/Washing_Machine.X/washiing_machine_functi
      +                          on_def.c: 27:     _delay((unsigned long)((2000)*(20000000/4000.0)));
  8069     17F1  3033               	movlw	51
  8070     17F2  1283               	bcf	3,5	;RP0=0, select bank0
  8071     17F3  1303               	bcf	3,6	;RP1=0, select bank0
  8072     17F4  00A7               	movwf	??_power_on_screen+2
  8073     17F5  30BB               	movlw	187
  8074     17F6  00A6               	movwf	??_power_on_screen+1
  8075     17F7  30DF               	movlw	223
  8076     17F8  00A5               	movwf	??_power_on_screen
  8077     17F9                     u5727:
  8078     17F9  0BA5               	decfsz	??_power_on_screen,f
  8079     17FA  2FF9               	goto	u5727
  8080     17FB  0BA6               	decfsz	??_power_on_screen+1,f
  8081     17FC  2FF9               	goto	u5727
  8082     17FD  0BA7               	decfsz	??_power_on_screen+2,f
  8083     17FE  2FF9               	goto	u5727
  8084     17FF                     l203:
  8085     17FF  0008               	return
  8086     1800                     __end_of_power_on_screen:
  8087                           
  8088                           	psect	text19
  8089     1478                     __ptext19:	
  8090 ;; *************** function _clcd_putch *****************
  8091 ;; Defined at:
  8092 ;;		line 49 in file "../../Internship Project/Emertxe project/Washing_Machine.X/clcd.c"
  8093 ;; Parameters:    Size  Location     Type
  8094 ;;  data            1    wreg     const unsigned char 
  8095 ;;  addr            1    8[COMMON] unsigned char 
  8096 ;; Auto vars:     Size  Location     Type
  8097 ;;  data            1    4[BANK0 ] const unsigned char 
  8098 ;; Return value:  Size  Location     Type
  8099 ;;                  1    wreg      void 
  8100 ;; Registers used:
  8101 ;;		wreg, status,2, status,0, pclath, cstack
  8102 ;; Tracked objects:
  8103 ;;		On entry : 0/0
  8104 ;;		On exit  : 0/0
  8105 ;;		Unchanged: 0/0
  8106 ;; Data sizes:     COMMON   BANK0   BANK1   BANK3   BANK2
  8107 ;;      Params:         1       0       0       0       0
  8108 ;;      Locals:         0       1       0       0       0
  8109 ;;      Temps:          0       0       0       0       0
  8110 ;;      Totals:         1       1       0       0       0
  8111 ;;Total ram usage:        2 bytes
  8112 ;; Hardware stack levels used: 1
  8113 ;; Hardware stack levels required when called: 2
  8114 ;; This function calls:
  8115 ;;		_clcd_write
  8116 ;; This function is called by:
  8117 ;;		_power_on_screen
  8118 ;;		_washing_program_display
  8119 ;;		_water_level_screen
  8120 ;;		_run_program
  8121 ;; This function uses a non-reentrant model
  8122 ;;
  8123                           
  8124     1478                     _clcd_putch:	
  8125                           ;psect for function _clcd_putch
  8126                           
  8127                           
  8128                           ;incstack = 0
  8129                           ; Regs used in _clcd_putch: [wreg+status,2+status,0+pclath+cstack]
  8130                           ;clcd_putch@data stored from wreg
  8131     1478  1283               	bcf	3,5	;RP0=0, select bank0
  8132     1479  1303               	bcf	3,6	;RP1=0, select bank0
  8133     147A  00A4               	movwf	clcd_putch@data
  8134     147B                     l3197:
  8135                           
  8136                           ;../../Internship Project/Emertxe project/Washing_Machine.X/clcd.c: 49: void clcd_putch(
      +                          const char data, unsigned char addr);../../Internship Project/Emertxe project/Washing_Ma
      +                          chine.X/clcd.c: 50: {;../../Internship Project/Emertxe project/Washing_Machine.X/clcd.c:
      +                           51:     clcd_write(addr, 0);
  8137     147B  01F2               	clrf	clcd_write@mode
  8138     147C  0878               	movf	clcd_putch@addr,w
  8139     147D  160A  118A  24A7  160A  118A  	fcall	_clcd_write
  8140                           
  8141                           ;../../Internship Project/Emertxe project/Washing_Machine.X/clcd.c: 52:     clcd_write(d
      +                          ata, 1);
  8142     1482  01F2               	clrf	clcd_write@mode
  8143     1483  0AF2               	incf	clcd_write@mode,f
  8144     1484  1283               	bcf	3,5	;RP0=0, select bank0
  8145     1485  1303               	bcf	3,6	;RP1=0, select bank0
  8146     1486  0824               	movf	clcd_putch@data,w
  8147     1487  160A  118A  24A7  160A  118A  	fcall	_clcd_write
  8148     148C                     l97:
  8149     148C  0008               	return
  8150     148D                     __end_of_clcd_putch:
  8151                           
  8152                           	psect	text20
  8153     1532                     __ptext20:	
  8154 ;; *************** function _clcd_print *****************
  8155 ;; Defined at:
  8156 ;;		line 55 in file "../../Internship Project/Emertxe project/Washing_Machine.X/clcd.c"
  8157 ;; Parameters:    Size  Location     Type
  8158 ;;  str             2    0[BANK0 ] PTR const unsigned char 
  8159 ;;		 -> STR_46(16), STR_45(5), STR_44(10), STR_43(18), 
  8160 ;;		 -> STR_42(13), STR_41(14), STR_40(18), STR_39(5), 
  8161 ;;		 -> STR_38(5), STR_37(6), STR_36(7), STR_35(6), 
  8162 ;;		 -> STR_34(6), STR_33(5), STR_32(16), STR_31(5), 
  8163 ;;		 -> STR_30(10), STR_29(6), STR_28(6), STR_27(13), 
  8164 ;;		 -> STR_26(4), STR_25(5), STR_24(7), STR_23(4), 
  8165 ;;		 -> STR_22(5), STR_21(17), STR_20(17), STR_19(13), 
  8166 ;;		 -> STR_18(11), STR_17(10), STR_16(9), STR_15(10), 
  8167 ;;		 -> STR_14(11), STR_13(8), STR_12(11), STR_11(11), 
  8168 ;;		 -> STR_10(7), STR_9(10), STR_8(6), STR_7(6), 
  8169 ;;		 -> STR_6(10), STR_5(11), STR_4(13), STR_3(16), 
  8170 ;;		 -> STR_2(9), STR_1(16), 
  8171 ;;  addr            1    2[BANK0 ] unsigned char 
  8172 ;; Auto vars:     Size  Location     Type
  8173 ;;		None
  8174 ;; Return value:  Size  Location     Type
  8175 ;;                  1    wreg      void 
  8176 ;; Registers used:
  8177 ;;		wreg, fsr0l, fsr0h, status,2, status,0, btemp+1, pclath, cstack
  8178 ;; Tracked objects:
  8179 ;;		On entry : 0/0
  8180 ;;		On exit  : 0/0
  8181 ;;		Unchanged: 0/0
  8182 ;; Data sizes:     COMMON   BANK0   BANK1   BANK3   BANK2
  8183 ;;      Params:         0       3       0       0       0
  8184 ;;      Locals:         0       0       0       0       0
  8185 ;;      Temps:          0       0       0       0       0
  8186 ;;      Totals:         0       3       0       0       0
  8187 ;;Total ram usage:        3 bytes
  8188 ;; Hardware stack levels used: 1
  8189 ;; Hardware stack levels required when called: 2
  8190 ;; This function calls:
  8191 ;;		_clcd_write
  8192 ;; This function is called by:
  8193 ;;		_main
  8194 ;;		_power_on_screen
  8195 ;;		_washing_program_display
  8196 ;;		_water_level_screen
  8197 ;;		_run_program
  8198 ;;		_door_status_check
  8199 ;; This function uses a non-reentrant model
  8200 ;;
  8201                           
  8202     1532                     _clcd_print:	
  8203                           ;psect for function _clcd_print
  8204                           
  8205     1532                     l2941:	
  8206                           ;incstack = 0
  8207                           ; Regs used in _clcd_print: [wreg-fsr0h+status,2+status,0+btemp+1+pclath+cstack]
  8208                           
  8209                           
  8210                           ;../../Internship Project/Emertxe project/Washing_Machine.X/clcd.c: 55: void clcd_print(
      +                          const char *str, unsigned char addr);../../Internship Project/Emertxe project/Washing_Ma
      +                          chine.X/clcd.c: 56: {;../../Internship Project/Emertxe project/Washing_Machine.X/clcd.c:
      +                           57:     clcd_write(addr, 0);
  8211     1532  01F2               	clrf	clcd_write@mode
  8212     1533  1283               	bcf	3,5	;RP0=0, select bank0
  8213     1534  1303               	bcf	3,6	;RP1=0, select bank0
  8214     1535  0822               	movf	clcd_print@addr,w
  8215     1536  160A  118A  24A7  160A  118A  	fcall	_clcd_write
  8216                           
  8217                           ;../../Internship Project/Emertxe project/Washing_Machine.X/clcd.c: 59:     while (*str 
      +                          != '\0')
  8218     153B  2D54               	goto	l2947
  8219     153C                     l2943:
  8220                           
  8221                           ;../../Internship Project/Emertxe project/Washing_Machine.X/clcd.c: 60:     {;../../Inte
      +                          rnship Project/Emertxe project/Washing_Machine.X/clcd.c: 61:         clcd_write(*str, 1)
      +                          ;
  8222     153C  01F2               	clrf	clcd_write@mode
  8223     153D  0AF2               	incf	clcd_write@mode,f
  8224     153E  0821               	movf	clcd_print@str+1,w
  8225     153F  00FF               	movwf	btemp+1
  8226     1540  0820               	movf	clcd_print@str,w
  8227     1541  0084               	movwf	4
  8228     1542  160A  118A  219A  160A  118A  	fcall	stringtab
  8229     1547  160A  118A  24A7  160A  118A  	fcall	_clcd_write
  8230     154C                     l2945:
  8231                           
  8232                           ;../../Internship Project/Emertxe project/Washing_Machine.X/clcd.c: 62:         str++;
  8233     154C  3001               	movlw	1
  8234     154D  1283               	bcf	3,5	;RP0=0, select bank0
  8235     154E  1303               	bcf	3,6	;RP1=0, select bank0
  8236     154F  07A0               	addwf	clcd_print@str,f
  8237     1550  1803               	skipnc
  8238     1551  0AA1               	incf	clcd_print@str+1,f
  8239     1552  3000               	movlw	0
  8240     1553  07A1               	addwf	clcd_print@str+1,f
  8241     1554                     l2947:
  8242                           
  8243                           ;../../Internship Project/Emertxe project/Washing_Machine.X/clcd.c: 59:     while (*str 
      +                          != '\0')
  8244     1554  1283               	bcf	3,5	;RP0=0, select bank0
  8245     1555  1303               	bcf	3,6	;RP1=0, select bank0
  8246     1556  0821               	movf	clcd_print@str+1,w
  8247     1557  00FF               	movwf	btemp+1
  8248     1558  0820               	movf	clcd_print@str,w
  8249     1559  0084               	movwf	4
  8250     155A  160A  118A  219A  160A  118A  	fcall	stringtab
  8251     155F  3A00               	xorlw	0
  8252     1560  1D03               	skipz
  8253     1561  2D63               	goto	u3501
  8254     1562  2D64               	goto	u3500
  8255     1563                     u3501:
  8256     1563  2D3C               	goto	l2943
  8257     1564                     u3500:
  8258     1564                     l103:
  8259     1564  0008               	return
  8260     1565                     __end_of_clcd_print:
  8261                           
  8262                           	psect	text21
  8263     148D                     __ptext21:	
  8264 ;; *************** function _init_config *****************
  8265 ;; Defined at:
  8266 ;;		line 14 in file "../../Internship Project/Emertxe project/Washing_Machine.X/main.c"
  8267 ;; Parameters:    Size  Location     Type
  8268 ;;		None
  8269 ;; Auto vars:     Size  Location     Type
  8270 ;;		None
  8271 ;; Return value:  Size  Location     Type
  8272 ;;                  1    wreg      void 
  8273 ;; Registers used:
  8274 ;;		wreg, status,2, status,0, pclath, cstack
  8275 ;; Tracked objects:
  8276 ;;		On entry : 0/0
  8277 ;;		On exit  : 0/0
  8278 ;;		Unchanged: 0/0
  8279 ;; Data sizes:     COMMON   BANK0   BANK1   BANK3   BANK2
  8280 ;;      Params:         0       0       0       0       0
  8281 ;;      Locals:         0       0       0       0       0
  8282 ;;      Temps:          0       0       0       0       0
  8283 ;;      Totals:         0       0       0       0       0
  8284 ;;Total ram usage:        0 bytes
  8285 ;; Hardware stack levels used: 1
  8286 ;; Hardware stack levels required when called: 4
  8287 ;; This function calls:
  8288 ;;		_init_clcd
  8289 ;;		_init_digital_keypad
  8290 ;;		_init_timer2
  8291 ;; This function is called by:
  8292 ;;		_main
  8293 ;; This function uses a non-reentrant model
  8294 ;;
  8295                           
  8296     148D                     _init_config:	
  8297                           ;psect for function _init_config
  8298                           
  8299     148D                     l3559:	
  8300                           ;incstack = 0
  8301                           ; Regs used in _init_config: [wreg+status,2+status,0+pclath+cstack]
  8302                           
  8303                           
  8304                           ;../../Internship Project/Emertxe project/Washing_Machine.X/main.c: 16: }
  8305     148D  160A  118A  2449  160A  118A  	fcall	_init_clcd
  8306                           
  8307                           ;../../Internship Project/Emertxe project/Washing_Machine.X/main.c: 18: void main(void) 
      +                          {
  8308     1492  120A  118A  27F9  160A  118A  	fcall	_init_digital_keypad
  8309     1497                     l3561:
  8310                           
  8311                           ;../../Internship Project/Emertxe project/Washing_Machine.X/main.c: 20:     init_config(
      +                          );
  8312     1497  160A  118A  2440  160A  118A  	fcall	_init_timer2
  8313     149C                     l3563:
  8314                           
  8315                           ;../../Internship Project/Emertxe project/Washing_Machine.X/main.c: 22:     clcd_print("
      +                          PRESS KEY 5 TO ", (0x80 + 1));
  8316     149C  178B               	bsf	11,7	;volatile
  8317     149D                     l3565:
  8318                           
  8319                           ;../../Internship Project/Emertxe project/Washing_Machine.X/main.c: 23:     clcd_print("
      +                          POWER ON", (0xC0 + 5));
  8320     149D  170B               	bsf	11,6	;volatile
  8321     149E                     l3567:
  8322                           
  8323                           ;../../Internship Project/Emertxe project/Washing_Machine.X/main.c: 24:     clcd_print("
      +                          WASHING MACHINE", (0x90 + 1));
  8324     149E  1683               	bsf	3,5	;RP0=1, select bank1
  8325     149F  1303               	bcf	3,6	;RP1=0, select bank1
  8326     14A0  1087               	bcf	7,1	;volatile
  8327     14A1                     l3569:
  8328                           
  8329                           ;../../Internship Project/Emertxe project/Washing_Machine.X/main.c: 25: 
  8330     14A1  1107               	bcf	7,2	;volatile
  8331     14A2                     l3571:
  8332                           
  8333                           ;../../Internship Project/Emertxe project/Washing_Machine.X/main.c: 26: 
  8334     14A2  1283               	bcf	3,5	;RP0=0, select bank0
  8335     14A3  1303               	bcf	3,6	;RP1=0, select bank0
  8336     14A4  1087               	bcf	7,1	;volatile
  8337     14A5                     l3573:
  8338                           
  8339                           ;../../Internship Project/Emertxe project/Washing_Machine.X/main.c: 27: 
  8340     14A5  1107               	bcf	7,2	;volatile
  8341     14A6                     l45:
  8342     14A6  0008               	return
  8343     14A7                     __end_of_init_config:
  8344                           
  8345                           	psect	text22
  8346     1440                     __ptext22:	
  8347 ;; *************** function _init_timer2 *****************
  8348 ;; Defined at:
  8349 ;;		line 4 in file "../../Internship Project/Emertxe project/Washing_Machine.X/timers.c"
  8350 ;; Parameters:    Size  Location     Type
  8351 ;;		None
  8352 ;; Auto vars:     Size  Location     Type
  8353 ;;		None
  8354 ;; Return value:  Size  Location     Type
  8355 ;;                  1    wreg      void 
  8356 ;; Registers used:
  8357 ;;		None
  8358 ;; Tracked objects:
  8359 ;;		On entry : 0/0
  8360 ;;		On exit  : 0/0
  8361 ;;		Unchanged: 0/0
  8362 ;; Data sizes:     COMMON   BANK0   BANK1   BANK3   BANK2
  8363 ;;      Params:         0       0       0       0       0
  8364 ;;      Locals:         0       0       0       0       0
  8365 ;;      Temps:          0       0       0       0       0
  8366 ;;      Totals:         0       0       0       0       0
  8367 ;;Total ram usage:        0 bytes
  8368 ;; Hardware stack levels used: 1
  8369 ;; Hardware stack levels required when called: 1
  8370 ;; This function calls:
  8371 ;;		Nothing
  8372 ;; This function is called by:
  8373 ;;		_init_config
  8374 ;; This function uses a non-reentrant model
  8375 ;;
  8376                           
  8377     1440                     _init_timer2:	
  8378                           ;psect for function _init_timer2
  8379                           
  8380     1440                     l3195:	
  8381                           ;incstack = 0
  8382                           ; Regs used in _init_timer2: []
  8383                           
  8384                           
  8385                           ;../../Internship Project/Emertxe project/Washing_Machine.X/timers.c: 8:     PR2 = 250;
  8386     1440  30FA               	movlw	250
  8387     1441  1683               	bsf	3,5	;RP0=1, select bank1
  8388     1442  1303               	bcf	3,6	;RP1=0, select bank1
  8389     1443  0092               	movwf	18	;volatile
  8390                           
  8391                           ;../../Internship Project/Emertxe project/Washing_Machine.X/timers.c: 11:     TMR2IE = 1
      +                          ;
  8392     1444  148C               	bsf	12,1	;volatile
  8393                           
  8394                           ;../../Internship Project/Emertxe project/Washing_Machine.X/timers.c: 14:     TMR2ON = 0
      +                          ;
  8395     1445  1283               	bcf	3,5	;RP0=0, select bank0
  8396     1446  1303               	bcf	3,6	;RP1=0, select bank0
  8397     1447  1112               	bcf	18,2	;volatile
  8398     1448                     l154:
  8399     1448  0008               	return
  8400     1449                     __end_of_init_timer2:
  8401                           
  8402                           	psect	text23
  8403     07F9                     __ptext23:	
  8404 ;; *************** function _init_digital_keypad *****************
  8405 ;; Defined at:
  8406 ;;		line 4 in file "../../Internship Project/Emertxe project/Washing_Machine.X/digital_keypad.c"
  8407 ;; Parameters:    Size  Location     Type
  8408 ;;		None
  8409 ;; Auto vars:     Size  Location     Type
  8410 ;;		None
  8411 ;; Return value:  Size  Location     Type
  8412 ;;                  1    wreg      void 
  8413 ;; Registers used:
  8414 ;;		wreg, status,2
  8415 ;; Tracked objects:
  8416 ;;		On entry : 0/0
  8417 ;;		On exit  : 0/0
  8418 ;;		Unchanged: 0/0
  8419 ;; Data sizes:     COMMON   BANK0   BANK1   BANK3   BANK2
  8420 ;;      Params:         0       0       0       0       0
  8421 ;;      Locals:         0       0       0       0       0
  8422 ;;      Temps:          0       0       0       0       0
  8423 ;;      Totals:         0       0       0       0       0
  8424 ;;Total ram usage:        0 bytes
  8425 ;; Hardware stack levels used: 1
  8426 ;; Hardware stack levels required when called: 1
  8427 ;; This function calls:
  8428 ;;		Nothing
  8429 ;; This function is called by:
  8430 ;;		_init_config
  8431 ;; This function uses a non-reentrant model
  8432 ;;
  8433                           
  8434     07F9                     _init_digital_keypad:	
  8435                           ;psect for function _init_digital_keypad
  8436                           
  8437     07F9                     l3193:	
  8438                           ;incstack = 0
  8439                           ; Regs used in _init_digital_keypad: [wreg+status,2]
  8440                           
  8441                           
  8442                           ;../../Internship Project/Emertxe project/Washing_Machine.X/digital_keypad.c: 6:     TRI
      +                          SB = TRISB | 0x3F;
  8443     07F9  1683               	bsf	3,5	;RP0=1, select bank1
  8444     07FA  1303               	bcf	3,6	;RP1=0, select bank1
  8445     07FB  0806               	movf	6,w	;volatile
  8446     07FC  383F               	iorlw	63
  8447     07FD  0086               	movwf	6	;volatile
  8448     07FE                     l110:
  8449     07FE  0008               	return
  8450     07FF                     __end_of_init_digital_keypad:
  8451                           
  8452                           	psect	text24
  8453     1449                     __ptext24:	
  8454 ;; *************** function _init_clcd *****************
  8455 ;; Defined at:
  8456 ;;		line 37 in file "../../Internship Project/Emertxe project/Washing_Machine.X/clcd.c"
  8457 ;; Parameters:    Size  Location     Type
  8458 ;;		None
  8459 ;; Auto vars:     Size  Location     Type
  8460 ;;		None
  8461 ;; Return value:  Size  Location     Type
  8462 ;;                  1    wreg      void 
  8463 ;; Registers used:
  8464 ;;		wreg, status,2, status,0, pclath, cstack
  8465 ;; Tracked objects:
  8466 ;;		On entry : 0/0
  8467 ;;		On exit  : 0/0
  8468 ;;		Unchanged: 0/0
  8469 ;; Data sizes:     COMMON   BANK0   BANK1   BANK3   BANK2
  8470 ;;      Params:         0       0       0       0       0
  8471 ;;      Locals:         0       0       0       0       0
  8472 ;;      Temps:          0       0       0       0       0
  8473 ;;      Totals:         0       0       0       0       0
  8474 ;;Total ram usage:        0 bytes
  8475 ;; Hardware stack levels used: 1
  8476 ;; Hardware stack levels required when called: 3
  8477 ;; This function calls:
  8478 ;;		_init_display_controller
  8479 ;; This function is called by:
  8480 ;;		_init_config
  8481 ;; This function uses a non-reentrant model
  8482 ;;
  8483                           
  8484     1449                     _init_clcd:	
  8485                           ;psect for function _init_clcd
  8486                           
  8487     1449                     l3185:	
  8488                           ;incstack = 0
  8489                           ; Regs used in _init_clcd: [wreg+status,2+status,0+pclath+cstack]
  8490                           
  8491                           
  8492                           ;../../Internship Project/Emertxe project/Washing_Machine.X/clcd.c: 40:     TRISD = 0x00
      +                          ;
  8493     1449  1683               	bsf	3,5	;RP0=1, select bank1
  8494     144A  1303               	bcf	3,6	;RP1=0, select bank1
  8495     144B  0188               	clrf	8	;volatile
  8496     144C                     l3187:
  8497                           
  8498                           ;../../Internship Project/Emertxe project/Washing_Machine.X/clcd.c: 43:     TRISE2 = 0;
  8499     144C  1109               	bcf	9,2	;volatile
  8500     144D                     l3189:
  8501                           
  8502                           ;../../Internship Project/Emertxe project/Washing_Machine.X/clcd.c: 44:     TRISE1 = 0;
  8503     144D  1089               	bcf	9,1	;volatile
  8504     144E                     l3191:
  8505                           
  8506                           ;../../Internship Project/Emertxe project/Washing_Machine.X/clcd.c: 46:     init_display
      +                          _controller();
  8507     144E  160A  118A  25B2  160A  118A  	fcall	_init_display_controller
  8508     1453                     l94:
  8509     1453  0008               	return
  8510     1454                     __end_of_init_clcd:
  8511                           
  8512                           	psect	text25
  8513     15B2                     __ptext25:	
  8514 ;; *************** function _init_display_controller *****************
  8515 ;; Defined at:
  8516 ;;		line 16 in file "../../Internship Project/Emertxe project/Washing_Machine.X/clcd.c"
  8517 ;; Parameters:    Size  Location     Type
  8518 ;;		None
  8519 ;; Auto vars:     Size  Location     Type
  8520 ;;		None
  8521 ;; Return value:  Size  Location     Type
  8522 ;;                  1    wreg      void 
  8523 ;; Registers used:
  8524 ;;		wreg, status,2, status,0, pclath, cstack
  8525 ;; Tracked objects:
  8526 ;;		On entry : 0/0
  8527 ;;		On exit  : 0/0
  8528 ;;		Unchanged: 0/0
  8529 ;; Data sizes:     COMMON   BANK0   BANK1   BANK3   BANK2
  8530 ;;      Params:         0       0       0       0       0
  8531 ;;      Locals:         0       0       0       0       0
  8532 ;;      Temps:          2       0       0       0       0
  8533 ;;      Totals:         2       0       0       0       0
  8534 ;;Total ram usage:        2 bytes
  8535 ;; Hardware stack levels used: 1
  8536 ;; Hardware stack levels required when called: 2
  8537 ;; This function calls:
  8538 ;;		_clcd_write
  8539 ;; This function is called by:
  8540 ;;		_init_clcd
  8541 ;; This function uses a non-reentrant model
  8542 ;;
  8543                           
  8544     15B2                     _init_display_controller:	
  8545                           ;psect for function _init_display_controller
  8546                           
  8547     15B2                     l2953:	
  8548                           ;incstack = 0
  8549                           ; Regs used in _init_display_controller: [wreg+status,2+status,0+pclath+cstack]
  8550                           
  8551                           
  8552                           ;../../Internship Project/Emertxe project/Washing_Machine.X/clcd.c: 19:     _delay((unsi
      +                          gned long)((30)*(20000000/4000.0)));
  8553     15B2  30C3               	movlw	195
  8554     15B3  00F7               	movwf	??_init_display_controller+1
  8555     15B4  30CD               	movlw	205
  8556     15B5  00F6               	movwf	??_init_display_controller
  8557     15B6                     u5737:
  8558     15B6  0BF6               	decfsz	??_init_display_controller,f
  8559     15B7  2DB6               	goto	u5737
  8560     15B8  0BF7               	decfsz	??_init_display_controller+1,f
  8561     15B9  2DB6               	goto	u5737
  8562     15BA                     l2955:
  8563                           
  8564                           ;../../Internship Project/Emertxe project/Washing_Machine.X/clcd.c: 22:     clcd_write(0
      +                          x33, 0);
  8565     15BA  01F2               	clrf	clcd_write@mode
  8566     15BB  3033               	movlw	51
  8567     15BC  160A  118A  24A7  160A  118A  	fcall	_clcd_write
  8568     15C1                     l2957:
  8569                           
  8570                           ;../../Internship Project/Emertxe project/Washing_Machine.X/clcd.c: 23:     _delay((unsi
      +                          gned long)((4100)*(20000000/4000000.0)));
  8571     15C1  301B               	movlw	27
  8572     15C2  00F7               	movwf	??_init_display_controller+1
  8573     15C3  309E               	movlw	158
  8574     15C4  00F6               	movwf	??_init_display_controller
  8575     15C5                     u5747:
  8576     15C5  0BF6               	decfsz	??_init_display_controller,f
  8577     15C6  2DC5               	goto	u5747
  8578     15C7  0BF7               	decfsz	??_init_display_controller+1,f
  8579     15C8  2DC5               	goto	u5747
  8580     15C9  0000               	nop
  8581                           
  8582                           ;../../Internship Project/Emertxe project/Washing_Machine.X/clcd.c: 24:     clcd_write(0
      +                          x33, 0);
  8583     15CA  01F2               	clrf	clcd_write@mode
  8584     15CB  3033               	movlw	51
  8585     15CC  160A  118A  24A7  160A  118A  	fcall	_clcd_write
  8586     15D1                     l2959:
  8587                           
  8588                           ;../../Internship Project/Emertxe project/Washing_Machine.X/clcd.c: 25:     _delay((unsi
      +                          gned long)((100)*(20000000/4000000.0)));
  8589     15D1  30A6               	movlw	166
  8590     15D2  00F6               	movwf	??_init_display_controller
  8591     15D3                     u5757:
  8592     15D3  0BF6               	decfsz	??_init_display_controller,f
  8593     15D4  2DD3               	goto	u5757
  8594     15D5  0000               	nop
  8595     15D6                     l2961:
  8596                           
  8597                           ;../../Internship Project/Emertxe project/Washing_Machine.X/clcd.c: 26:     clcd_write(0
      +                          x33, 0);
  8598     15D6  01F2               	clrf	clcd_write@mode
  8599     15D7  3033               	movlw	51
  8600     15D8  160A  118A  24A7  160A  118A  	fcall	_clcd_write
  8601     15DD                     l2963:
  8602                           
  8603                           ;../../Internship Project/Emertxe project/Washing_Machine.X/clcd.c: 27:     _delay((unsi
      +                          gned long)((1)*(20000000/4000000.0)));
  8604     15DD  2DDE               	nop2	;2 cycle nop
  8605     15DE  2DDF               	nop2	;2 cycle nop
  8606     15DF  0000               	nop
  8607     15E0                     l2965:
  8608                           
  8609                           ;../../Internship Project/Emertxe project/Washing_Machine.X/clcd.c: 29:     clcd_write(0
      +                          x3C, 0);
  8610     15E0  01F2               	clrf	clcd_write@mode
  8611     15E1  303C               	movlw	60
  8612     15E2  160A  118A  24A7  160A  118A  	fcall	_clcd_write
  8613     15E7                     l2967:
  8614                           
  8615                           ;../../Internship Project/Emertxe project/Washing_Machine.X/clcd.c: 30:     _delay((unsi
      +                          gned long)((100)*(20000000/4000000.0)));
  8616     15E7  30A6               	movlw	166
  8617     15E8  00F6               	movwf	??_init_display_controller
  8618     15E9                     u5767:
  8619     15E9  0BF6               	decfsz	??_init_display_controller,f
  8620     15EA  2DE9               	goto	u5767
  8621     15EB  0000               	nop
  8622                           
  8623                           ;../../Internship Project/Emertxe project/Washing_Machine.X/clcd.c: 31:     clcd_write(0
      +                          x01, 0);
  8624     15EC  01F2               	clrf	clcd_write@mode
  8625     15ED  3001               	movlw	1
  8626     15EE  160A  118A  24A7  160A  118A  	fcall	_clcd_write
  8627     15F3                     l2969:
  8628                           
  8629                           ;../../Internship Project/Emertxe project/Washing_Machine.X/clcd.c: 32:     _delay((unsi
      +                          gned long)((500)*(20000000/4000000.0)));
  8630     15F3  3004               	movlw	4
  8631     15F4  00F7               	movwf	??_init_display_controller+1
  8632     15F5  303D               	movlw	61
  8633     15F6  00F6               	movwf	??_init_display_controller
  8634     15F7                     u5777:
  8635     15F7  0BF6               	decfsz	??_init_display_controller,f
  8636     15F8  2DF7               	goto	u5777
  8637     15F9  0BF7               	decfsz	??_init_display_controller+1,f
  8638     15FA  2DF7               	goto	u5777
  8639     15FB  2DFC               	nop2
  8640     15FC                     l2971:
  8641                           
  8642                           ;../../Internship Project/Emertxe project/Washing_Machine.X/clcd.c: 33:     clcd_write(0
      +                          x0C, 0);
  8643     15FC  01F2               	clrf	clcd_write@mode
  8644     15FD  300C               	movlw	12
  8645     15FE  160A  118A  24A7  160A  118A  	fcall	_clcd_write
  8646                           
  8647                           ;../../Internship Project/Emertxe project/Washing_Machine.X/clcd.c: 34:     _delay((unsi
      +                          gned long)((100)*(20000000/4000000.0)));
  8648     1603  30A6               	movlw	166
  8649     1604  00F6               	movwf	??_init_display_controller
  8650     1605                     u5787:
  8651     1605  0BF6               	decfsz	??_init_display_controller,f
  8652     1606  2E05               	goto	u5787
  8653     1607  0000               	nop
  8654     1608                     l91:
  8655     1608  0008               	return
  8656     1609                     __end_of_init_display_controller:
  8657                           
  8658                           	psect	text26
  8659     14A7                     __ptext26:	
  8660 ;; *************** function _clcd_write *****************
  8661 ;; Defined at:
  8662 ;;		line 4 in file "../../Internship Project/Emertxe project/Washing_Machine.X/clcd.c"
  8663 ;; Parameters:    Size  Location     Type
  8664 ;;  byte            1    wreg     unsigned char 
  8665 ;;  mode            1    2[COMMON] unsigned char 
  8666 ;; Auto vars:     Size  Location     Type
  8667 ;;  byte            1    5[COMMON] unsigned char 
  8668 ;; Return value:  Size  Location     Type
  8669 ;;                  1    wreg      void 
  8670 ;; Registers used:
  8671 ;;		wreg
  8672 ;; Tracked objects:
  8673 ;;		On entry : 0/0
  8674 ;;		On exit  : 0/0
  8675 ;;		Unchanged: 0/0
  8676 ;; Data sizes:     COMMON   BANK0   BANK1   BANK3   BANK2
  8677 ;;      Params:         1       0       0       0       0
  8678 ;;      Locals:         1       0       0       0       0
  8679 ;;      Temps:          2       0       0       0       0
  8680 ;;      Totals:         4       0       0       0       0
  8681 ;;Total ram usage:        4 bytes
  8682 ;; Hardware stack levels used: 1
  8683 ;; Hardware stack levels required when called: 1
  8684 ;; This function calls:
  8685 ;;		Nothing
  8686 ;; This function is called by:
  8687 ;;		_init_display_controller
  8688 ;;		_clcd_putch
  8689 ;;		_clcd_print
  8690 ;;		_clear_screen
  8691 ;; This function uses a non-reentrant model
  8692 ;;
  8693                           
  8694     14A7                     _clcd_write:	
  8695                           ;psect for function _clcd_write
  8696                           
  8697                           
  8698                           ;incstack = 0
  8699                           ; Regs used in _clcd_write: [wreg]
  8700                           ;clcd_write@byte stored from wreg
  8701     14A7  00F5               	movwf	clcd_write@byte
  8702     14A8                     l2933:
  8703                           
  8704                           ;../../Internship Project/Emertxe project/Washing_Machine.X/clcd.c: 4: void clcd_write(u
      +                          nsigned char byte, unsigned char mode);../../Internship Project/Emertxe project/Washing_
      +                          Machine.X/clcd.c: 5: {;../../Internship Project/Emertxe project/Washing_Machine.X/clcd.c
      +                          : 6:     RE2 = mode;
  8705     14A8  1872               	btfsc	clcd_write@mode,0
  8706     14A9  2CAB               	goto	u3481
  8707     14AA  2CAF               	goto	u3480
  8708     14AB                     u3481:
  8709     14AB  1283               	bcf	3,5	;RP0=0, select bank0
  8710     14AC  1303               	bcf	3,6	;RP1=0, select bank0
  8711     14AD  1509               	bsf	9,2	;volatile
  8712     14AE  2CB2               	goto	u3494
  8713     14AF                     u3480:
  8714     14AF  1283               	bcf	3,5	;RP0=0, select bank0
  8715     14B0  1303               	bcf	3,6	;RP1=0, select bank0
  8716     14B1  1109               	bcf	9,2	;volatile
  8717     14B2                     u3494:
  8718     14B2                     l2935:
  8719                           
  8720                           ;../../Internship Project/Emertxe project/Washing_Machine.X/clcd.c: 7:     PORTD = byte;
  8721     14B2  0875               	movf	clcd_write@byte,w
  8722     14B3  0088               	movwf	8	;volatile
  8723     14B4                     l2937:
  8724                           
  8725                           ;../../Internship Project/Emertxe project/Washing_Machine.X/clcd.c: 9:     RE1 = 1;
  8726     14B4  1489               	bsf	9,1	;volatile
  8727                           
  8728                           ;../../Internship Project/Emertxe project/Washing_Machine.X/clcd.c: 10:     _delay((unsi
      +                          gned long)((100)*(20000000/4000000.0)));
  8729     14B5  30A6               	movlw	166
  8730     14B6  00F3               	movwf	??_clcd_write
  8731     14B7                     u5797:
  8732     14B7  0BF3               	decfsz	??_clcd_write,f
  8733     14B8  2CB7               	goto	u5797
  8734     14B9  0000               	nop
  8735     14BA                     l2939:
  8736                           
  8737                           ;../../Internship Project/Emertxe project/Washing_Machine.X/clcd.c: 11:     RE1 = 0;
  8738     14BA  1283               	bcf	3,5	;RP0=0, select bank0
  8739     14BB  1303               	bcf	3,6	;RP1=0, select bank0
  8740     14BC  1089               	bcf	9,1	;volatile
  8741                           
  8742                           ;../../Internship Project/Emertxe project/Washing_Machine.X/clcd.c: 13:     _delay((unsi
      +                          gned long)((4100)*(20000000/4000000.0)));
  8743     14BD  301B               	movlw	27
  8744     14BE  00F4               	movwf	??_clcd_write+1
  8745     14BF  309E               	movlw	158
  8746     14C0  00F3               	movwf	??_clcd_write
  8747     14C1                     u5807:
  8748     14C1  0BF3               	decfsz	??_clcd_write,f
  8749     14C2  2CC1               	goto	u5807
  8750     14C3  0BF4               	decfsz	??_clcd_write+1,f
  8751     14C4  2CC1               	goto	u5807
  8752     14C5  0000               	nop
  8753     14C6                     l88:
  8754     14C6  0008               	return
  8755     14C7                     __end_of_clcd_write:
  8756                           
  8757                           	psect	text27
  8758     1565                     __ptext27:	
  8759 ;; *************** function _isr *****************
  8760 ;; Defined at:
  8761 ;;		line 5 in file "../../Internship Project/Emertxe project/Washing_Machine.X/isr.c"
  8762 ;; Parameters:    Size  Location     Type
  8763 ;;		None
  8764 ;; Auto vars:     Size  Location     Type
  8765 ;;		None
  8766 ;; Return value:  Size  Location     Type
  8767 ;;                  1    wreg      void 
  8768 ;; Registers used:
  8769 ;;		wreg, status,2, status,0
  8770 ;; Tracked objects:
  8771 ;;		On entry : 0/0
  8772 ;;		On exit  : 0/0
  8773 ;;		Unchanged: 0/0
  8774 ;; Data sizes:     COMMON   BANK0   BANK1   BANK3   BANK2
  8775 ;;      Params:         0       0       0       0       0
  8776 ;;      Locals:         0       0       0       0       0
  8777 ;;      Temps:          2       0       0       0       0
  8778 ;;      Totals:         2       0       0       0       0
  8779 ;;Total ram usage:        2 bytes
  8780 ;; Hardware stack levels used: 1
  8781 ;; This function calls:
  8782 ;;		Nothing
  8783 ;; This function is called by:
  8784 ;;		Interrupt level 1
  8785 ;; This function uses a non-reentrant model
  8786 ;;
  8787                           
  8788     1565                     _isr:	
  8789                           ;psect for function _isr
  8790                           
  8791     1565                     i1l2913:
  8792                           
  8793                           ;../../Internship Project/Emertxe project/Washing_Machine.X/isr.c: 7:     static unsigne
      +                          d long int count = 0;;../../Internship Project/Emertxe project/Washing_Machine.X/isr.c: 
      +                          9:     if (TMR2IF == 1) {
  8794     1565  1283               	bcf	3,5	;RP0=0, select bank0
  8795     1566  1303               	bcf	3,6	;RP1=0, select bank0
  8796     1567  1C8C               	btfss	12,1	;volatile
  8797     1568  2D6A               	goto	u343_21
  8798     1569  2D6B               	goto	u343_20
  8799     156A                     u343_21:
  8800     156A  2DAB               	goto	i1l145
  8801     156B                     u343_20:
  8802     156B                     i1l2915:
  8803                           
  8804                           ;../../Internship Project/Emertxe project/Washing_Machine.X/isr.c: 10:         if (++cou
      +                          nt == 20000) {
  8805     156B  3001               	movlw	1
  8806     156C  1683               	bsf	3,5	;RP0=1, select bank1
  8807     156D  1303               	bcf	3,6	;RP1=0, select bank1
  8808     156E  07C2               	addwf	isr@count^(0+128),f
  8809     156F  3000               	movlw	0
  8810     1570  1803               	skipnc
  8811     1571  3001               	movlw	1
  8812     1572  07C3               	addwf	(isr@count+1)^(0+128),f
  8813     1573  3000               	movlw	0
  8814     1574  1803               	skipnc
  8815     1575  3001               	movlw	1
  8816     1576  07C4               	addwf	(isr@count+2)^(0+128),f
  8817     1577  3000               	movlw	0
  8818     1578  1803               	skipnc
  8819     1579  3001               	movlw	1
  8820     157A  07C5               	addwf	(isr@count+3)^(0+128),f
  8821     157B  3020               	movlw	32
  8822     157C  0642               	xorwf	isr@count^(0+128),w
  8823     157D  304E               	movlw	78
  8824     157E  1903               	skipnz
  8825     157F  0643               	xorwf	(isr@count+1)^(0+128),w
  8826     1580  0444               	iorwf	(isr@count+2)^(0+128),w
  8827     1581  0445               	iorwf	(isr@count+3)^(0+128),w
  8828     1582  1D03               	btfss	3,2
  8829     1583  2D85               	goto	u344_21
  8830     1584  2D86               	goto	u344_20
  8831     1585                     u344_21:
  8832     1585  2DA8               	goto	i1l2931
  8833     1586                     u344_20:
  8834     1586                     i1l2917:
  8835                           
  8836                           ;../../Internship Project/Emertxe project/Washing_Machine.X/isr.c: 11:             if (s
      +                          ec != 0) {
  8837     1586  1283               	bcf	3,5	;RP0=0, select bank0
  8838     1587  1303               	bcf	3,6	;RP1=0, select bank0
  8839     1588  086A               	movf	_sec,w
  8840     1589  1903               	btfsc	3,2
  8841     158A  2D8C               	goto	u345_21
  8842     158B  2D8D               	goto	u345_20
  8843     158C                     u345_21:
  8844     158C  2D90               	goto	i1l2921
  8845     158D                     u345_20:
  8846     158D                     i1l2919:
  8847                           
  8848                           ;../../Internship Project/Emertxe project/Washing_Machine.X/isr.c: 12:                 s
      +                          ec--;
  8849     158D  3001               	movlw	1
  8850     158E  02EA               	subwf	_sec,f
  8851                           
  8852                           ;../../Internship Project/Emertxe project/Washing_Machine.X/isr.c: 13:             } els
      +                          e if (sec == 0 && min != 0) {
  8853     158F  2D9E               	goto	i1l2929
  8854     1590                     i1l2921:
  8855     1590  086A               	movf	_sec,w
  8856     1591  1D03               	btfss	3,2
  8857     1592  2D94               	goto	u346_21
  8858     1593  2D95               	goto	u346_20
  8859     1594                     u346_21:
  8860     1594  2D9E               	goto	i1l2929
  8861     1595                     u346_20:
  8862     1595                     i1l2923:
  8863     1595  0869               	movf	_min,w
  8864     1596  1903               	btfsc	3,2
  8865     1597  2D99               	goto	u347_21
  8866     1598  2D9A               	goto	u347_20
  8867     1599                     u347_21:
  8868     1599  2D9E               	goto	i1l2929
  8869     159A                     u347_20:
  8870     159A                     i1l2925:
  8871                           
  8872                           ;../../Internship Project/Emertxe project/Washing_Machine.X/isr.c: 14:                 m
      +                          in--;
  8873     159A  3001               	movlw	1
  8874     159B  02E9               	subwf	_min,f
  8875     159C                     i1l2927:
  8876                           
  8877                           ;../../Internship Project/Emertxe project/Washing_Machine.X/isr.c: 15:                 s
      +                          ec = 60;
  8878     159C  303C               	movlw	60
  8879     159D  00EA               	movwf	_sec
  8880     159E                     i1l2929:
  8881                           
  8882                           ;../../Internship Project/Emertxe project/Washing_Machine.X/isr.c: 17:             count
      +                           = 0;
  8883     159E  3000               	movlw	0
  8884     159F  1683               	bsf	3,5	;RP0=1, select bank1
  8885     15A0  1303               	bcf	3,6	;RP1=0, select bank1
  8886     15A1  00C5               	movwf	(isr@count+3)^(0+128)
  8887     15A2  3000               	movlw	0
  8888     15A3  00C4               	movwf	(isr@count+2)^(0+128)
  8889     15A4  3000               	movlw	0
  8890     15A5  00C3               	movwf	(isr@count+1)^(0+128)
  8891     15A6  3000               	movlw	0
  8892     15A7  00C2               	movwf	isr@count^(0+128)
  8893     15A8                     i1l2931:
  8894                           
  8895                           ;../../Internship Project/Emertxe project/Washing_Machine.X/isr.c: 19:         TMR2IF = 
      +                          0;
  8896     15A8  1283               	bcf	3,5	;RP0=0, select bank0
  8897     15A9  1303               	bcf	3,6	;RP1=0, select bank0
  8898     15AA  108C               	bcf	12,1	;volatile
  8899     15AB                     i1l145:
  8900     15AB  0871               	movf	??_isr+1,w
  8901     15AC  008A               	movwf	10
  8902     15AD  0E70               	swapf	??_isr,w
  8903     15AE  0083               	movwf	3
  8904     15AF  0EFE               	swapf	btemp,f
  8905     15B0  0E7E               	swapf	btemp,w
  8906     15B1  0009               	retfie
  8907     15B2                     __end_of_isr:
  8908     0002                     ___latbits      equ	2
  8909     007E                     btemp           set	126	;btemp
  8910     007E                     wtemp0          set	126
  8911                           
  8912                           	psect	intentry
  8913     0004                     __pintentry:	
  8914                           ;incstack = 0
  8915                           ; Regs used in _isr: [wreg+status,2+status,0]
  8916                           
  8917     0004                     interrupt_function:
  8918     007E                     saved_w         set	btemp
  8919     0004  00FE               	movwf	btemp
  8920     0005  0E03               	swapf	3,w
  8921     0006  00F0               	movwf	??_isr
  8922     0007  080A               	movf	10,w
  8923     0008  00F1               	movwf	??_isr+1
  8924     0009  160A  118A  2D65   	ljmp	_isr
  8925                           
  8926                           	psect	config
  8927                           
  8928                           ;Config register CONFIG @ 0x2007
  8929                           ;	Oscillator Selection bits
  8930                           ;	FOSC = 0x3, unprogrammed default
  8931                           ;	Watchdog Timer Enable bit
  8932                           ;	WDTE = OFF, WDT disabled
  8933                           ;	Power-up Timer Enable bit
  8934                           ;	PWRTE = 0x1, unprogrammed default
  8935                           ;	Brown-out Reset Enable bit
  8936                           ;	BOREN = 0x1, unprogrammed default
  8937                           ;	Low-Voltage (Single-Supply) In-Circuit Serial Programming Enable bit
  8938                           ;	LVP = 0x1, unprogrammed default
  8939                           ;	Data EEPROM Memory Code Protection bit
  8940                           ;	CPD = 0x1, unprogrammed default
  8941                           ;	Flash Program Memory Write Enable bits
  8942                           ;	WRT = 0x3, unprogrammed default
  8943                           ;	In-Circuit Debugger Mode bit
  8944                           ;	DEBUG = 0x1, unprogrammed default
  8945                           ;	Flash Program Memory Code Protection bit
  8946                           ;	CP = 0x1, unprogrammed default
  8947     2007                     	org	8199
  8948     2007  3FFB               	dw	16379

Data Sizes:
    Strings     410
    Constant    0
    Data        39
    BSS         19
    Persistent  0
    Stack       0

Auto Spaces:
    Space          Size  Autos    Used
    COMMON           14      9      12
    BANK0            80     63      80
    BANK1            80      4      42
    BANK3            96      0       0
    BANK2            96      0       0

Pointer List with Targets:

    clcd_print@str	PTR const unsigned char  size(2) Largest target is 18
		 -> STR_1(CODE[16]), STR_10(CODE[7]), STR_11(CODE[11]), STR_12(CODE[11]), 
		 -> STR_13(CODE[8]), STR_14(CODE[11]), STR_15(CODE[10]), STR_16(CODE[9]), 
		 -> STR_17(CODE[10]), STR_18(CODE[11]), STR_19(CODE[13]), STR_2(CODE[9]), 
		 -> STR_20(CODE[17]), STR_21(CODE[17]), STR_22(CODE[5]), STR_23(CODE[4]), 
		 -> STR_24(CODE[7]), STR_25(CODE[5]), STR_26(CODE[4]), STR_27(CODE[13]), 
		 -> STR_28(CODE[6]), STR_29(CODE[6]), STR_3(CODE[16]), STR_30(CODE[10]), 
		 -> STR_31(CODE[5]), STR_32(CODE[16]), STR_33(CODE[5]), STR_34(CODE[6]), 
		 -> STR_35(CODE[6]), STR_36(CODE[7]), STR_37(CODE[6]), STR_38(CODE[5]), 
		 -> STR_39(CODE[5]), STR_4(CODE[13]), STR_40(CODE[18]), STR_41(CODE[14]), 
		 -> STR_42(CODE[13]), STR_43(CODE[18]), STR_44(CODE[10]), STR_45(CODE[5]), 
		 -> STR_46(CODE[16]), STR_5(CODE[11]), STR_6(CODE[10]), STR_7(CODE[6]), 
		 -> STR_8(CODE[6]), STR_9(CODE[10]), 

    washing_program	PTR unsigned char [12] size(2) Largest target is 11
		 -> STR_10(CODE[7]), STR_11(CODE[11]), STR_12(CODE[11]), STR_13(CODE[8]), 
		 -> STR_14(CODE[11]), STR_15(CODE[10]), STR_16(CODE[9]), STR_17(CODE[10]), 
		 -> STR_18(CODE[11]), STR_7(CODE[6]), STR_8(CODE[6]), STR_9(CODE[10]), 

    water_level	PTR unsigned char [5] size(2) Largest target is 7
		 -> STR_22(CODE[5]), STR_23(CODE[4]), STR_24(CODE[7]), STR_25(CODE[5]), 
		 -> STR_26(CODE[4]), 


Critical Paths under _main in COMMON

    _water_level_screen->_clcd_putch
    _washing_program_display->_clcd_putch
    _run_program->_clcd_putch
    _door_status_check->_clear_screen
    _clear_screen->_clcd_write
    ___fltol->___xxtofl
    ___flsub->___fladd
    ___flsub->___xxtofl
    ___flmul->__Umul8_16
    ___flmul->___xxtofl
    ___flge->___xxtofl
    _power_on_screen->_clcd_putch
    _clcd_putch->___awmod
    _clcd_print->___awmod
    _init_clcd->_init_display_controller
    _init_display_controller->_clcd_write

Critical Paths under _isr in COMMON

    None.

Critical Paths under _main in BANK0

    _main->_run_program
    _water_level_screen->_clcd_putch
    _washing_program_display->_clcd_putch
    _run_program->___flge
    _door_status_check->_clcd_print
    ___fltol->___flmul
    ___flsub->___flmul
    ___flmul->___xxtofl
    ___flge->___flsub
    _power_on_screen->_clcd_putch
    _clcd_putch->___awdiv

Critical Paths under _isr in BANK0

    None.

Critical Paths under _main in BANK1

    None.

Critical Paths under _isr in BANK1

    None.

Critical Paths under _main in BANK3

    None.

Critical Paths under _isr in BANK3

    None.

Critical Paths under _main in BANK2

    None.

Critical Paths under _isr in BANK2

    None.

Call Graph Tables:

 ---------------------------------------------------------------------------------
 (Depth) Function   	        Calls       Base Space   Used Autos Params    Refs
 ---------------------------------------------------------------------------------
 (0) _main                                                 4     4      0   12856
                                              0 BANK1      4     4      0
                         _clcd_print
                       _clear_screen
                        _init_config
                    _power_on_screen
                _read_digital_keypad
                        _run_program
                           _set_time
            _washing_program_display
                 _water_level_screen
 ---------------------------------------------------------------------------------
 (1) _water_level_screen                                   4     4      0    1301
                                              5 BANK0      4     4      0
                            ___awmod
                         _clcd_print
                         _clcd_putch
                       _clear_screen
 ---------------------------------------------------------------------------------
 (1) _washing_program_display                              4     4      0     848
                                              5 BANK0      4     4      0
                         _clcd_print
                         _clcd_putch
                       _clear_screen
 ---------------------------------------------------------------------------------
 (1) _set_time                                             0     0      0       0
 ---------------------------------------------------------------------------------
 (1) _run_program                                          7     7      0    8612
                                             56 BANK0      7     7      0
                            ___awdiv
                            ___awmod
                             ___flge
                            ___flmul
                            ___flsub
                            ___fltol
                             ___wmul
                           ___xxtofl
                         _clcd_print
                         _clcd_putch
                       _clear_screen
                  _door_status_check
 ---------------------------------------------------------------------------------
 (2) _door_status_check                                    0     0      0     570
                         _clcd_print
                       _clear_screen
 ---------------------------------------------------------------------------------
 (2) _clear_screen                                         2     2      0     111
                                              6 COMMON     2     2      0
                         _clcd_write
 ---------------------------------------------------------------------------------
 (2) ___xxtofl                                            14    10      4     526
                                              2 COMMON     4     0      4
                                              0 BANK0     10    10      0
 ---------------------------------------------------------------------------------
 (2) ___wmul                                               6     2      4       8
                                              2 COMMON     6     2      4
 ---------------------------------------------------------------------------------
 (2) ___fltol                                             10     6      4     346
                                              6 COMMON     2     2      0
                                             36 BANK0      8     4      4
                            ___flmul (ARG)
                           ___xxtofl (ARG)
 ---------------------------------------------------------------------------------
 (2) ___flsub                                              8     0      8    3025
                                             36 BANK0      8     0      8
                            ___fladd
                            ___flmul (ARG)
                           ___xxtofl (ARG)
 ---------------------------------------------------------------------------------
 (3) ___fladd                                             20    12      8    2954
                                              2 COMMON     4     4      0
                                              0 BANK0     16     8      8
 ---------------------------------------------------------------------------------
 (2) ___flmul                                             26    18      8    2452
                                             10 BANK0     26    18      8
                          __Umul8_16
                           ___xxtofl (ARG)
 ---------------------------------------------------------------------------------
 (3) __Umul8_16                                            9     7      2     232
                                              2 COMMON     4     2      2
                                              0 BANK0      5     5      0
 ---------------------------------------------------------------------------------
 (2) ___flge                                              12     4      8     272
                                             44 BANK0     12     4      8
                            ___flmul (ARG)
                            ___flsub (ARG)
                           ___xxtofl (ARG)
 ---------------------------------------------------------------------------------
 (2) ___awmod                                              6     2      4     453
                                              2 COMMON     6     2      4
 ---------------------------------------------------------------------------------
 (2) ___awdiv                                              8     4      4      90
                                              2 COMMON     4     0      4
                                              0 BANK0      4     4      0
 ---------------------------------------------------------------------------------
 (1) _read_digital_keypad                                  2     2      0     130
                                              2 COMMON     1     1      0
 ---------------------------------------------------------------------------------
 (1) _power_on_screen                                      5     5      0     888
                                              5 BANK0      5     5      0
                         _clcd_print
                         _clcd_putch
 ---------------------------------------------------------------------------------
 (2) _clcd_putch                                           2     1      1     231
                                              8 COMMON     1     0      1
                                              4 BANK0      1     1      0
                            ___awdiv (ARG)
                            ___awmod (ARG)
                         _clcd_write
 ---------------------------------------------------------------------------------
 (2) _clcd_print                                           3     0      3     459
                                              0 BANK0      3     0      3
                            ___awmod (ARG)
                         _clcd_write
 ---------------------------------------------------------------------------------
 (1) _init_config                                          0     0      0     111
                          _init_clcd
                _init_digital_keypad
                        _init_timer2
 ---------------------------------------------------------------------------------
 (2) _init_timer2                                          0     0      0       0
 ---------------------------------------------------------------------------------
 (2) _init_digital_keypad                                  0     0      0       0
 ---------------------------------------------------------------------------------
 (2) _init_clcd                                            0     0      0     111
            _init_display_controller
 ---------------------------------------------------------------------------------
 (3) _init_display_controller                              2     2      0     111
                                              6 COMMON     2     2      0
                         _clcd_write
 ---------------------------------------------------------------------------------
 (3) _clcd_write                                           4     3      1     111
                                              2 COMMON     4     3      1
 ---------------------------------------------------------------------------------
 Estimated maximum stack depth 3
 ---------------------------------------------------------------------------------
 (Depth) Function   	        Calls       Base Space   Used Autos Params    Refs
 ---------------------------------------------------------------------------------
 (5) _isr                                                  2     2      0       0
                                              0 COMMON     2     2      0
 ---------------------------------------------------------------------------------
 Estimated maximum stack depth 5
 ---------------------------------------------------------------------------------

 Call Graph Graphs:

 _main (ROOT)
   _clcd_print
     ___awmod (ARG)
     _clcd_write (ARG)
   _clear_screen
     _clcd_write
   _init_config
     _init_clcd
       _init_display_controller
         _clcd_write
     _init_digital_keypad
     _init_timer2
   _power_on_screen
     _clcd_print
     _clcd_putch
       ___awdiv (ARG)
       ___awmod (ARG)
       _clcd_write (ARG)
   _read_digital_keypad
   _run_program
     ___awdiv
     ___awmod
     ___flge
       ___flmul (ARG)
         __Umul8_16
         ___xxtofl (ARG)
       ___flsub (ARG)
         ___fladd
         ___flmul (ARG)
         ___xxtofl (ARG)
       ___xxtofl (ARG)
     ___flmul
     ___flsub
     ___fltol
       ___flmul (ARG)
       ___xxtofl (ARG)
     ___wmul
     ___xxtofl
     _clcd_print
     _clcd_putch
     _clear_screen
     _door_status_check
       _clcd_print
       _clear_screen
   _set_time
   _washing_program_display
     _clcd_print
     _clcd_putch
     _clear_screen
   _water_level_screen
     ___awmod
     _clcd_print
     _clcd_putch
     _clear_screen

 _isr (ROOT)

Address spaces:
Name               Size   Autos  Total    Usage
BANK3               96      0       0      0.0%
BITBANK3            96      0       0      0.0%
BANK2               96      0       0      0.0%
BITBANK2            96      0       0      0.0%
BANK1               80      4      42     52.5%
BITBANK1            80      0       0      0.0%
BANK0               80     63      80    100.0%
BITBANK0            80      0       0      0.0%
COMMON              14      9      12     85.7%
BITCOMMON           14      0       0      0.0%
DATA                 0      0     132      0.0%
STACK                0      0       0      0.0%


Microchip Technology PIC Macro Assembler V3.00 build 20241204225717 
Symbol Table                                                                                   Tue Jul 01 17:16:45 2025

                              pc 0002                   clcd_print@addr 0022                               l45 14A6  
                             l62 0C38                               l56 0BE9                               l91 1608  
                             l94 1453                               l88 14C6                               l97 148C  
                   ___awdiv@sign 0021                               fsr 0004              ___wmul@multiplicand 0074  
            __Umul8_16@word_mpld 0022                              l110 07FE                              l103 1564  
                            l203 17FF                              l123 1790                              l124 178F  
                            l300 0CE4                              l310 0D07                              l214 0B08  
                            l224 09F3                              l154 1448                              l242 0400  
                            l251 0C42                              l340 0D6F                              l324 0D3B  
                            l253 0C47                              l350 16BD                              l343 0DA7  
                            l248 0C3D                              l441 1531                              l353 1464  
                            l347 1688                              l283 0CB5                              l275 0C9D  
                            l620 0931                              l605 165F                              l349 168E  
                            l285 0CB5                              l277 0C9D                              l439 1519  
                            l640 0891                              l625 094A                              l617 08C5  
                            l633 08A6                              l643 08A6                              l740 0E05  
                            l735 0DD4                              l592 1722                              l744 0E86  
                            l761 0F52                              l753 0FFF                              l842 06B4  
                            l746 0E5F                              l771 0F99                              l836 0742  
                            l765 0F76                              l782 0FF5                              l774 0FD5  
                            l855 081E                              l783 0FFF                              l848 0738  
                            l880 0767                              l857 0830                              l881 0778  
                            l786 150C                              l882 07F8                              l893 07C2  
                            l894 07CE                              l886 07A6                              _GIE 005F  
                            _RB0 0030                              _RC1 0039                              _RC2 003A  
                            _RE1 0049                              _RE2 004A                              _PR2 0092  
                            _min 0069                              _sec 006A                              _isr 1565  
                 clcd_putch@addr 0078                              fsr0 0004                   clcd_putch@data 0024  
                            indf 0000                     ___awmod@sign 0077                     ___flmul@aexp 0038  
                   ___flmul@bexp 003D                     ___flmul@sign 0037                     ___flmul@temp 0042  
                   ___flmul@prod 003E                      _run_program 004B                     ___fltol@exp1 0077  
                           l3001 0DDF                             l3011 0DF2                             l3003 0DE3  
                           l3101 0F2B                             l3021 0E0F                             l3013 0DFA  
                           l3005 0DE7                             l3111 0F5A                             l3103 0F2D  
                           l3031 0E19                             l3023 0E11                             l3015 0DFB  
                           l3007 0DE8                             l3121 0F75                             l3113 0F5F  
                           l3105 0F30                             l3041 0E23                             l3033 0E1B  
                           l3025 0E13                             l3009 0DED                             l3017 0DFD  
                           l3201 1666            ??_read_digital_keypad 0072                             l3123 0F7A  
                           l3131 0F87                             l3107 0F35                             l3051 0E2D  
                           l3043 0E25                             l3035 0E1D                             l3027 0E15  
                           l3019 0E0B                             l3211 1696                             l3203 1669  
                           l3301 1644                             l3125 0F7E                             l3117 0F68  
                           l3109 0F44                             l3133 0F8B                             l3061 0E6C  
                           l3045 0E27                             l3037 0E1F                             l3029 0E17  
                           l3053 0E2F                             l3221 1513                             l3213 16A3  
                           l3205 166E                             l4101 011A                             l4031 16C1  
                           l3303 164B                             l3151 0FD3                             l3143 0F9E  
                           l3135 0F8C                             l3127 0F80                             l3119 0F71  
                           l3063 0E6E                             l3071 0E80                             l3055 0E30  
                           l3047 0E29                             l3039 0E21                             l3223 1520  
                           l3215 16B0                             l3207 167B                             l4111 019C  
                           l4103 0127                             l4041 16D5                             l4033 16C5  
                           l3305 1651                             l3321 08E5                             l3313 08A7  
                           l3401 0437                             l3161 0FED                             l3153 0FDA  
                           l3145 0FA3                             l3137 0F90                             l3129 0F85  
                           l3081 0EB3                             l3073 0E8A                             l3065 0E74  
                           l3057 0E47                             l3049 0E2B                             l3225 1527  
                           l3217 150D                             l3209 1691                             l4121 021A  
                           l4113 01D7                             l4105 0134                             l4201 0B51  
                           l4051 16E9                             l4043 16D7                             l4035 16CA  
                           l3307 1656                             l3323 0909                             l3315 08BD  
                           l3171 080B                             l3411 044C                             l3403 0438  
                           l3163 0FF1                             l3155 0FDF                             l3147 0FB1  
                           l3139 0F96                             l3091 0EC8                             l3083 0EB7  
                           l3075 0E8F                             l3067 0E75                             l3059 0E63  
                           l3227 152D                             l3219 150F                             l4131 025C  
                           l4123 021E                             l4115 0212                             l4107 0141  
                           l4211 0B76                             l4203 0B56                             l4061 1707  
                           l4053 16EB                             l4045 16D9                             l4037 16CC  
                           l4029 16BE                             l3309 165B                             l3325 090D  
                           l3317 08D9                             l3181 082C                             l3173 080D  
                           l3501 0716                             l3421 0467                             l3413 0454  
                           l3405 043D                             l3165 0FF3                             l3157 0FE7  
                           l3149 0FB5                             l3093 0EC9                             l3085 0EBB  
                           l3069 0E7E                             l3341 0858                             l3333 0831  
                           l4141 030C                             l4133 027D                             l4125 0238  
                           l4117 0213                             l4109 0161                             l4221 0BA0  
                           l4213 0B7D                             l4205 0B5B                             l3191 144E  
                           l4063 170E                             l4055 16EF                             l4047 16DF  
                           l4039 16D0                             l3327 0947                             l3319 08E1  
                           l3175 0814                             l3511 0733                             l3503 0720  
                           l3431 04E3                             l3423 0475                             l3415 0459  
                           l3407 0442                             l3167 0FFA                             l3159 0FEC  
                           l3095 0ED2                             l3087 0EC2                             l3079 0E9A  
                           l3343 0859                             l3335 083C                             l4143 031A  
                           l4135 0289                             l4151 0345                             l4127 023E  
                           l4119 0214                             l4231 0BCE                             l4223 0BA2  
                           l4215 0B81                             l4207 0B64                             l3185 1449  
                           l3193 07F9                             l3601 175D                             l4057 1700  
                           l4049 16E2                             l4065 1714                             l3281 1613  
                           l3329 0949                             l3177 0818                             l3513 073A  
                           l3505 0722                             l3441 054F                             l3433 04FF  
                           l3425 0482                             l3417 045E                             l3409 044A  
                           l3169 0FFE                             l3089 0EC4                             l3097 0ED5  
                           l3345 0861                             l3521 074F                             l4161 03B9  
                           l4153 0360                             l4145 0328                             l4129 0250  
                           l4137 0295                             l4081 006D                             l4073 004E  
                           l4241 0BEA                             l4225 0BA7                             l4217 0B90  
                           l4209 0B6E                             l3187 144C                             l3195 1440  
                           l3611 1787                             l3603 176A                             l4067 1719  
                           l4059 1706                             l3291 1627                             l3283 1615  
                           l3275 1609                             l3179 0827                             l3507 072E  
                           l3451 05D9                             l3443 055D                             l3435 051B  
                           l3427 049D                             l3099 0EED                             l3371 14ED  
                           l3363 0886                             l3355 086F                             l3347 0863  
                           l3339 0845                             l3531 0786                             l3523 075F  
                           l4171 03CE                             l4163 03C0                             l4155 037B  
                           l4147 032E                             l4139 029B                             l4091 00CD  
                           l4083 0082                             l4075 0053                             l4251 0C12  
                           l4243 0BF3                             l4227 0BB4                             l4219 0B98  
                           l4235 0BD4                             l3189 144D                             l3197 147B  
                           l3605 1773                             l4069 171E                             l3293 162E  
                           l3285 1619                             l3277 160A                             l3509 0732  
                           l3461 0669                             l3453 05E7                             l3445 057A  
                           l3437 0524                             l3429 04B9                             l3381 040B  
                           l3365 0896                             l3349 0867                             l3357 087F  
                           l3541 07B8                             l3533 078D                             l3525 076F  
                           l3517 0746                             l4181 03F9                             l4173 03D9  
                           l4165 03C5                             l4157 0383                             l4149 033A  
                           l4093 00E8                             l4085 008F                             l4077 005B  
                           l4253 0C18                             l4245 0BFC                             l4237 0BDC  
                           l4229 0BC1                             l3631 17AF                             l3607 1778  
                           l3615 178F                             l3295 1630                             l3287 161E  
                           l3279 160E                             l3471 068E                             l3463 0677  
                           l3455 0612                             l3447 0591                             l3439 0532  
                           l3391 0422                             l3383 040F                             l3375 0401  
                           l3367 089B                             l3551 07EB                             l3543 07BC  
                           l3535 078F                             l3519 074B                             l3199 1660  
                           l4183 03FB                             l4175 03E6                             l4167 03CA  
                           l4159 039E                             l4095 0103                             l4087 00AA  
                           l4079 0060                             l3711 0CEA                             l3703 0CD3  
                           l4255 0C1F                             l4247 0C05                             l4239 0BE4  
                           l4191 0B28                             l3561 1497                             l3641 17D0  
                           l3633 17B5                             l3625 1794                             l3609 1781  
                           l3297 1634                             l3289 1624                             l3481 06B1  
                           l3465 0680                             l3473 0694                             l3457 0638  
                           l3449 05AE                             l3393 0424                             l3385 0410  
                           l3377 0405                             l3369 14E9                             l3553 07EF  
                           l3545 07C6                             l3537 079D                             l3529 077B  
                           l4177 03F4                             l4169 03CD                             l4097 0107  
                           l4089 00C5                             l3721 0D0B                             l3713 0CFB  
                           l3705 0CE4                             l3801 0A3D                             l4249 0C0B  
                           l4193 0B35                             l4185 0B09                             l3571 14A2  
                           l3563 149C                             l3643 17D9                             l3635 17CD  
                           l3627 179D                             l3619 1791                             l3299 163E  
                           l3491 06D0                             l3475 0698                             l3467 0684  
                           l3459 0660                             l3395 042C                             l3387 0415  
                           l3379 0407                             l3555 07F0                             l3547 07D0  
                           l3539 07AD                             l4179 03F7                             l4099 0115  
                           l3731 0D24                             l3715 0CFE                             l3707 0CE7  
                           l3651 0C3C                             l3811 0ACD                             l3803 0A43  
                           l4259 0C28                             l4195 0B3E                             l4187 0B0E  
                           l2933 14A8                             l3573 14A5                             l3565 149D  
                           l2941 1532                             l3645 17E7                             l3629 17AB  
                           l3581 172F                             l3493 06E9                             l3485 06B9  
                           l3477 0699                             l3469 0685                             l3397 042F  
                           l3389 041A                             l3549 07E6                             l3741 0D2A  
                           l3733 0D27                             l3725 0D0D                             l3717 0D01  
                           l3661 0C63                             l3805 0A83                             l3821 0963  
                           l3813 094E                             l4189 0B1B                             l2935 14B2  
                           l3567 149E                             l3559 148D                             l2943 153C  
                           l3647 17EB                             l3591 1745                             l3583 1734  
                           l3575 1723                             l3487 06BE                             l3495 06EF  
                           l3479 069D                             l3399 0433                             l2951 145B  
                           l3751 0D52                             l3743 0D3B                             l3727 0D1E  
                           l3719 0D04                             l3671 0C6F                             l3663 0C66  
                           l3655 0C4C                             l3807 0A89                             l3823 0968  
                           l3831 097F                             l3815 0954                             l4199 0B45  
                           l2937 14B4                             l2961 15D6                             l2953 15B2  
                           l3569 14A1                             l2945 154C                             l3649 17F1  
                           l3593 1747                             l3585 1737                             l3577 1727  
                           l3497 06FC                             l3489 06CC                             l3753 0D55  
                           l3745 0D3E                             l3729 0D21                             l3673 0C80  
                           l3665 0C69                             l3657 0C5D                             l3809 0AC7  
                           l3833 098C                             l3825 096A                             l3817 0959  
                           l2939 14BA                             l2971 15FC                             l2963 15DD  
                           l2955 15BA                             l2947 1554                             l3595 1754  
                           l3587 173A                             l3579 1729                             l3499 0707  
                           l3755 0D58                             l3691 0CBC                             l3683 0C8C  
                           l3675 0C83                             l3667 0C6C                             l3659 0C60  
                           l3835 0994                             l3827 0970                             l3819 095D  
                           l2965 15E0                             l2957 15C1                             l3589 1740  
                           l2981 0DB6                             l2973 0DA8                             l2949 1454  
                           l3773 0D70                             l3765 0D5E                             l3757 0D5B  
                           l3749 0D41                             l3677 0C86                             l3781 09FD  
                           l3837 09A9                             l3829 0971                             l2967 15E7  
                           l2959 15D1                             l3599 1758                             l2991 0DCA  
                           l2983 0DB7                             l2975 0DAC                             l3687 0CA4  
                           l3679 0C89                             l3791 0A13                             l3783 0A02  
                           l3839 09CE                             l2969 15F3                             l2985 0DBC  
                           l2993 0DCC                             l2977 0DAE                             l3697 0CCD  
                           l3777 0D81                             l3793 0A19                             l3785 0A06  
                           l2995 0DD6                             l2987 0DC1                             l2979 0DB2  
                           l3699 0CD0                             l3795 0A1A                             l3787 0A0C  
                           l3779 09F7                             l2997 0DD8                             l2989 0DC9  
                           l3789 0A11                             l3797 0A28                             l2999 0DDE  
                           l3799 0A35                             ?_isr 0070                             STR_1 1056  
                           STR_2 112A                             STR_3 1066                             STR_4 10AB  
                           STR_5 10E4                             STR_6 1117                             STR_7 1168  
                           STR_8 116E                             STR_9 10F9                             u4000 1666  
                           u4001 1665                             u4010 168E                             u4011 168D  
                           u4020 1513                             u4021 1512                             u5000 1778  
                           u4200 1634                             u5001 1777                             u4201 1633  
                           u5010 1781                             u4210 163E                             u4050 152D  
                           u5011 1780                             u4211 163D                             u4051 152C  
                           u4035 151A                             u3500 1564                             u5020 1787  
                           u5100 0ACD                             u3501 1563                             u5021 1786  
                           u4301 091C                             u4045 1521                             u5101 0ACC  
                           u5030 17B5                             u4230 1651                             u4310 0947  
                           u4302 091D                             u3510 0DB6                             u5110 0954  
                           u5031 17B4                             u4231 1650                             u4215 163A  
                           u4311 0946                             u4303 0922                             u3511 0DB5  
                           u5111 0953                             u5040 17F1                             u4240 1656  
                           u4160 160E                             u4304 0923                             u3600 0E47  
                           u3520 0DBC                             u4400 0896                             u4320 083C  
                           u5120 0963                             u5041 17F0                             u4241 1655  
                           u4225 1645                             u4161 160D                             u4305 0928  
                           u3601 0E46                             u3521 0DBB                             u4401 0895  
                           u4321 083B                             u5121 0962                             u4170 1619  
                           u4306 0929                             u4250 08BD                             u3610 0E52  
                           u3530 0DC1                             u4410 089B                             u4330 0853  
                           u5050 09FD                             u5130 0970                             u4171 1618  
                           u4315 0943                             u4251 08BC                             u3611 0E50  
                           u3531 0DC0                             u4411 089A                             u5051 09FC  
                           u5131 096F                             u4180 1624                             u4260 08D9  
                           u4420 040F                             u3700 0EB7                             u3620 0E53  
                           u3540 0DDE                             u4340 0867                             u5060 0A0C  
                           u4181 1623                             u4261 08D8                             u4501 04AB  
                           u4421 040E                             u3701 0EB6                             u3605 0E43  
                           u3541 0DDD                             u4341 0866                             u5061 0A0B  
                           u4270 08E5                             u4502 04B2                             u4430 0415  
                           u3710 0EBB                             u3630 0E63                             u3550 0DE7  
                           u4350 086E                             u5070 0A19                             u4271 08E4  
                           u4511 04C7                             u4503 04B9                             u4431 0414  
                           u3711 0EBA                             u3631 0E62                             u3551 0DE6  
                           u4351 086D                             u4335 084E                             u5071 0A18  
                           u3480 14AF                             u4512 04CE                             u4440 041A  
                           u3720 0EC8                             u3640 0E74                             u3560 0DED  
                           u5080 0A43                             u3481 14AB                             u4281 08F4  
                           u4601 05F6                             u4521 04F1                             u4513 04D5  
                           u4441 0419                             u3721 0EC7                             u3641 0E73  
                           u3561 0DEC                             u5081 0A42                             u5410 1714  
                           u5330 16C5                             u4290 090D                             u4282 08F5  
                           u4610 061E                             u4602 05FD                             u4522 04F8  
                           u4450 0437                             u3810 0F75                             u3570 0DF2  
                           u4370 087E                             u5090 0A89                             u5411 1713  
                           u5331 16C4                             u4195 1628                             u4291 090C  
                           u4283 08FA                             u4603 0604                             u4531 050D  
                           u4523 04FF                             u4451 0436                             u3811 0F74  
                           u3571 0DF1                             u4371 087D                             u5091 0A88  
                           _PEIE 005E                             u5420 1719                             u5340 16D0  
                           u4284 08FB                             u4700 069D                             u4532 0514  
                           u4460 043D                             u3900 0FC4                             u3820 0F7A  
                           u3740 0EED                             u3660 0E86                             u3580 0E0B  
                           u4380 0885                             u5500 032E                             u5421 1718  
                           u5405 1708                             u5341 16CF                             u4285 0900  
                           u4701 069C                             u4621 062A                             u4533 051B  
                           u4461 043C                             u3821 0F79                             u3805 0F6A  
                           u3741 0EEC                             u3661 0E85                             u3581 0E0A  
                           u4381 0884                             u4365 0870                             u5501 032D  
                           u3494 14B2                             u5350 16DF                             u4286 0901  
                           u4710 06B1                             u4630 0646                             u4622 0631  
                           u4470 0442                             u3910 0FD3                             u3830 0F85  
                           u3670 0E8A                             u3590 0E0F                             u5510 03C0  
                           u5430 005B                             u5351 16DE                             u4711 06B0  
                           u4623 0638                             u4615 0619                             u4551 0541  
                           u4471 0441                             u3911 0FD2                             u3831 0F84  
                           u3751 0F04                             u3743 0EE9                             u3735 0ECB  
                           u3671 0E89                             u3655 0E77                             u3591 0E0E  
                           u5511 03BF                             u5431 005A                             u4720 06B8  
                           u4552 0548                             u4480 0459                             u3920 0FDA  
                           u3840 0F8B                             u3760 0F18                             u3752 0F05  
                           u3680 0E8F                             u4800 074F                             u5520 03C5  
                           u5440 021A                             u5600 0C0B                             u4721 06B7  
                           u4641 0652                             u4561 056C                             u4553 054F  
                           u4545 051D                             u4481 0458                             u3921 0FD9  
                           u3905 0FBF                             u3841 0F8A                             u3761 0F19  
                           u3753 0F0A                             u3681 0E8E                             u4801 074E  
                           u5521 03C4                             u5441 0219                             u5601 0C0A  
                           u5370 16EF                             u4730 06BE                             u4642 0659  
                           u4562 0573                             u4490 045E                             u3930 0FDF  
                           u3850 0F90                             u3770 0F35                             u3762 0F1E  
                           u3754 0F0B                             u4810 076F                             u5450 023E  
                           u5610 0C18                             u5530 0B44                             u5371 16EE  
                           u4731 06BD                             u4643 0660                             u4635 0641  
                           u4563 057A                             u4491 045D                             u3931 0FDE  
                           u3851 0F8F                             u3771 0F34                             u3763 0F1F  
                           u3755 0F10                             u3691 0EA5                             u4395 0888  
                           u4811 076E                             u5451 023D                             u5611 0C17  
                           u5531 0B43                             u4740 06D0                             u3940 0FEC  
                           u3860 0F96                             u3780 0F5A                             u3756 0F11  
                           u3692 0EAC                             u4900 07DB                             u5460 0250  
                           u5540 0B76                             u5365 16E3                             u4741 06CF  
                           u4581 05A0                             u3941 0FEB                             u3861 0F95  
                           u3781 0F59                             u3693 0EB3                             u5461 024F  
                           u5541 0B75                             u5390 1700                             u4750 06DF  
                           u4670 0684                             u4582 05A7                             u3950 0FF1  
                           u3870 0F9D                             u3790 0F5F                             u4910 07EB  
                           u4830 078C                             u5470 027D                             u5550 0B7D  
                           u5391 16FF                             u4671 0683                             u4655 0662  
                           u4591 05CB                             u4583 05AE                             u4575 057C  
                           u3951 0FF0                             u3871 0F9C                             u3791 0F5E  
                           u4911 07EA                             u4831 078B                             u5471 027C  
                           u5551 0B7C                             u4760 06FC                             u4592 05D2  
                           u3960 0FFE                             u3880 0FA3                             u4920 07EF  
                           u5480 029B                             u5560 0B98                             u5385 16F0  
                           u4761 06FB                             u4665 0679                             u4593 05D9  
                           u3961 0FFD                             u3881 0FA2                             u4921 07EE  
                           u4905 07D6                             u4825 077E                             u5481 029A  
                           u5465 024C                             u5561 0B97                             u4930 172F  
                           u3970 0818                             u4770 0716                             u4690 0698  
                           u3890 0FB5                             u4850 07AC                             u5490 030C  
                           u5570 0BA0                             u5707 17A5                             u4931 172E  
                           u5395 16FC                             u3971 0817                             u4771 0715  
                           u4755 06DA                             u4691 0697                             u3891 0FB4  
                           u4851 07AB                             u5491 030B                             u5475 0279  
                           u5571 0B9F                             u5627 0B4B                             u4940 1734  
                           u4780 0732                             u5580 0BDC                             u5717 17E1  
                           u4941 1733                             u4781 0731                             u4765 06F8  
                           u4685 0687                             u4845 079E                             u5581 0BDB  
                           u5637 0B6A                             u4950 1740                             u3990 082C  
                           u4870 07BC                             u4790 074B                             u5590 0BE4  
                           u5807 14C1                             u5727 17F9                             u4951 173F  
                           u3991 082B                             u4775 0712                             u4871 07BB  
                           u4791 074A                             u5591 0BE3                             u5647 0B89  
                           u4960 1745                             u4880 07C2                             u5737 15B6  
                           u4961 1744                             u3985 081F                             u4881 07C1  
                           u4865 07B1                             u5657 0979                             u4970 1754  
                           u4890 07C6                             u5747 15C5                             u4971 1753  
                           u4891 07C5                             u5667 0A22                             u4980 175D  
                           u5757 15D3                             u4981 175C                             u5677 010F  
                           u4990 176A                             u5767 15E9                             u4991 1769  
                           u4975 1750                             u5687 03EE                             u5777 15F7  
                           u5697 145F                             u5787 1605                             u4995 1766  
                           u5797 14B7                             _main 0B09                             _time 005F  
                           btemp 007E                             start 000C                   clcd_write@byte 0075  
                 clcd_write@mode 0072          __end_of_power_on_screen 1800        ??_washing_program_display 0025  
                          ??_isr 0070                    ___fltol@sign1 0076                  __end_of___fladd 1000  
                          ?_main 0070                  __end_of___awdiv 1723                            STR_10 1149  
                          STR_11 10C3                            STR_20 1024                            STR_12 10CE  
                          STR_21 1035                            STR_13 1133                            STR_30 10EF  
                          STR_22 118D                            STR_14 10D9                            STR_31 1174  
                          STR_23 1192                            STR_15 110D                            STR_32 1046  
                          STR_40 1000                            STR_24 1142                            STR_16 1121  
                          STR_33 1183                            STR_41 1076                            STR_25 117E  
                          STR_17 1103                            STR_34 1162                            STR_42 109E  
                          STR_26 1196                            STR_18 10B8                            STR_35 1150  
                          STR_27 1091                            STR_19 1084                            STR_43 1012  
                          STR_44 10EF                            STR_28 115C                            STR_36 113B  
                __end_of___awmod 1660                            STR_37 1150                            STR_45 1179  
                          STR_29 1156                            STR_46 1046                            STR_38 1188  
                          STR_39 10C9                  __end_of___flmul 0743                  __end_of___flsub 150D  
                __end_of___fltol 08A7                  ___awdiv@divisor 0072                            i1l145 15AB  
                   ?_init_config 0070                  ___awdiv@counter 0020                            _PORTB 0006  
                          _PORTD 0008                            _TRISB 0086                            _TRISD 0088  
                   ?_init_timer2 0070             __end_of_clear_screen 1465                            _level 0079  
                          pclath 000A                            status 0003                            wtemp0 007E  
                __initialization 000F                     __end_of_main 0C3C                           ??_main 00C6  
                 run_program@key 005E  __end_of_washing_program_display 0B09                 ___awdiv@dividend 0074  
                         i1l2921 1590                           i1l2913 1565                           i1l2923 1595  
                         i1l2931 15A8                           i1l2915 156B                           i1l2925 159A  
                         i1l2917 1586                           i1l2927 159C                           i1l2919 158D  
                         i1l2929 159E                           u343_20 156B                           u343_21 156A  
                         u344_20 1586                           u344_21 1585                           u345_20 158D  
                         u345_21 158C                           u346_20 1595                           u346_21 1594  
                         u347_20 159A                           u347_21 1599                           _TMR2IE 0461  
                         _TMR2IF 0061                           _TMR2ON 0092                           _TRISC1 0439  
                         _TRISC2 043A                           _TRISE1 0449                           _TRISE2 044A  
               __end_of___xxtofl 07F9      __end_of_init_digital_keypad 07FF                           ___flge 08A7  
        _init_display_controller 15B2                        ??___fladd 0028                           ___wmul 150D  
                      ??___awdiv 0076                 ?_power_on_screen 0070                        ??___awmod 0076  
                      ??___flmul 0032                        ??___flsub 0076                        ??___fltol 0048  
               ___awdiv@quotient 0022                  ___awmod@divisor 0072                  ___awmod@counter 0076  
                   __pdataCOMMON 007B                 __end_of_set_time 0DA8                           saved_w 007E  
                     ___flge@ff1 004C                       ___flge@ff2 0050                     ___xxtofl@arg 0026  
                   ___xxtofl@exp 0025                     ___xxtofl@val 0072          __end_of__initialization 0047  
                     ___fltol@f1 0044                   __pcstackCOMMON 0070                     __pidataBANK0 0804  
                   __pidataBANK1 14C7                     ?_run_program 0070                       __pbssBANK0 005F  
                     __pbssBANK1 00C2        ??_init_display_controller 0076                       _clcd_print 1532  
                     _clcd_putch 1478                       _clcd_write 14A7                __end_of__Umul8_16 0831  
                     __pmaintext 0B09                     _clear_screen 1454                          ?___flge 004C  
                        ?___wmul 0072                       __pintentry 0004      __end_of_read_digital_keypad 1791  
                      ?___xxtofl 0072                       __stringtab 119A                        ?_set_time 0070  
                        ___fladd 0DA8                          ___awdiv 16BE                          ___awmod 1609  
                        ___flmul 0401                          ___flsub 14E9                          ___fltol 0831  
                        __ptext1 094B                          __ptext2 09F4                          __ptext3 0C3C  
                        __ptext4 004B                          __ptext5 1660                          __ptext6 1454  
                        __ptext7 0743                          __ptext8 150D                          __ptext9 0831  
__end_of_init_display_controller 1609                __end_of_init_clcd 1454           read_digital_keypad@key 0072  
                     ??___xxtofl 0020                 ___awmod@dividend 0074                          main@key 00C9  
           end_of_initialization 0047                      ?_clcd_print 0020                      ?_clcd_putch 0078  
                    ?_clcd_write 0072         ?_washing_program_display 0070                       _reset_flag 006E  
                     ??_set_time 0072                     __pstringtext 1000                       _rinse_time 0063  
                    ___fladd@grs 0075       washing_program_display@key 0028                       _program_no 007A  
                  ___xxtofl@sign 0024                    clcd_print@str 0020                      ___flmul@grs 0039  
                     _total_time 0067                   __end_of___flge 094B                   __end_of___wmul 1532  
                  __pidataCOMMON 07FF              start_initialization 000F                      __end_of_isr 15B2  
          water_level_screen@key 0028                         ??___flge 0054                         ??___wmul 0076  
                     init_fetch0 1465                        __Umul8_16 0808       __end_of_water_level_screen 09F4  
                    __pdataBANK0 006C                      __pdataBANK1 00A0       read_digital_keypad@pre_key 006B  
                  ??_init_config 0078                        ___fladd@a 0024                        ___fladd@b 0020  
                  ??_init_timer2 0072                        ___flmul@a 002E                        ___flmul@b 002A  
                    __pbssCOMMON 0079                        ___flsub@a 0044                        ___flsub@b 0048  
                      ___latbits 0002                    __pcstackBANK0 0020                    __pcstackBANK1 00C6  
           power_on_screen@i_186 0029                         ?___fladd 0020                         ?___awdiv 0072  
                       ?___awmod 0072                         ?___flmul 002A                         ?___flsub 0044  
                       ?___fltol 0044                       ?__Umul8_16 0072                        __pstrings 119A  
                      _init_clcd 1449              __end_of_init_config 14A7   read_digital_keypad@longpressed 006C  
              ??_power_on_screen 0025              __end_of_init_timer2 1449                  _washing_program 00A0  
       ?_init_display_controller 0070                interrupt_function 0004                   ___wmul@product 0076  
                   ??_clcd_print 0078                     ??_clcd_putch 0079                     ??_clcd_write 0073  
                      _wash_time 0065                        _spin_time 0061                      __stringbase 11AC  
              ___wmul@multiplier 0072               __end_of_clcd_print 1565               __end_of_clcd_putch 148D  
             __end_of_clcd_write 14C7                       ?_init_clcd 0070              _init_digital_keypad 07F9  
                    ??__Umul8_16 0074             ?_init_digital_keypad 0070               __end_of__stringtab 11AC  
                    _init_config 148D                         ___xxtofl 0743                 _operational_mode 006F  
                    _init_timer2 1440                    ??_run_program 0058                         __ptext10 14E9  
                       __ptext11 0DA8                         __ptext20 1532                         __ptext12 0401  
                       __ptext21 148D                         __ptext13 0808                         __ptext22 1440  
                       __ptext14 08A7                         __ptext23 07F9                         __ptext15 1609  
                       __ptext24 1449                         __ptext16 16BE                         __ptext25 15B2  
                       __ptext17 1723                         __ptext26 14A7                         __ptext18 1791  
                       __ptext27 1565                         __ptext19 1478          read_digital_keypad@mode 0070  
        read_digital_keypad@once 007B                    ?_clear_screen 0070                         _set_time 0C3C  
          ??_init_digital_keypad 0072                _door_status_check 1660               ?_door_status_check 0070  
                       isr@count 00C2              ??_door_status_check 0078                         init_ram0 1469  
             _water_level_screen 094B                      ??_init_clcd 0078                         intlevel1 0000  
            ?_water_level_screen 0070              __end_of_run_program 0401                        stringcode 11A4  
                 ??_clear_screen 0076        __end_of_door_status_check 16BE              _read_digital_keypad 1723  
           ??_water_level_screen 0025          _washing_program_display 09F4           __Umul8_16@multiplicand 0072  
                _power_on_screen 1791                         stringtab 119A                    ___fladd@signs 0072  
           ?_read_digital_keypad 0070                 power_on_screen@i 0028                      _water_level 00B8  
                   ___fladd@aexp 0073                     ___fladd@bexp 0074             __Umul8_16@multiplier 0024  
              __Umul8_16@product 0020  
